EXPORTS
	_ZN10CEvtAction10ConstructLEv @ 1 NONAME
	_ZN10CEvtAction4NewLEv @ 2 NONAME
	_ZN10CEvtAction5NewLCEv @ 3 NONAME
	_ZN10CEvtActionC1Ev @ 4 NONAME
	_ZN10CEvtActionC2Ev @ 5 NONAME
	_ZN10CEvtActionD0Ev @ 6 NONAME
	_ZN10CEvtActionD1Ev @ 7 NONAME
	_ZN10CEvtActionD2Ev @ 8 NONAME
	_ZN14CEvtToneAction10ConstructLEv @ 9 NONAME
	_ZN14CEvtToneAction11SetToneLoopEi @ 10 NONAME
	_ZN14CEvtToneAction12ExternalizeLER10CEvtAction @ 11 NONAME
	_ZN14CEvtToneAction12InternalizeLER10CEvtAction @ 12 NONAME
	_ZN14CEvtToneAction12SetFileNameLERK7TDesC16 @ 13 NONAME
	_ZN14CEvtToneAction4NewLEv @ 14 NONAME
	_ZN14CEvtToneAction5NewLCEv @ 15 NONAME
	_ZN14CEvtToneActionC1Ev @ 16 NONAME
	_ZN14CEvtToneActionC2Ev @ 17 NONAME
	_ZN14CEvtToneActionD0Ev @ 18 NONAME
	_ZN14CEvtToneActionD1Ev @ 19 NONAME
	_ZN14CEvtToneActionD2Ev @ 20 NONAME
	_ZN16CEvtEventManager10GetEventsLE15TEvtEventStatusR13RPointerArrayI18CEvtBasicEventInfoE @ 21 NONAME
	_ZN16CEvtEventManager10GetEventsLER13RPointerArrayI18CEvtBasicEventInfoE @ 22 NONAME
	_ZN16CEvtEventManager11SetObserverEP21MEvtStorageDbObserver @ 23 NONAME
	_ZN16CEvtEventManager12RemoveEventLEm @ 24 NONAME
	_ZN16CEvtEventManager12UpdateEventLER9CEvtEvent @ 25 NONAME
	_ZN16CEvtEventManager13RemoveEventsLERK6RArrayImE @ 26 NONAME
	_ZN16CEvtEventManager18UpdateEventStatusLEm15TEvtEventStatus @ 27 NONAME
	_ZN16CEvtEventManager19UpdateEventsStatusLERK6RArrayImE15TEvtEventStatus @ 28 NONAME
	_ZN16CEvtEventManager4NewLEv @ 29 NONAME
	_ZN16CEvtEventManager5NewLCEv @ 30 NONAME
	_ZN16CEvtEventManager9AddEventLER9CEvtEvent @ 31 NONAME
	_ZN16CEvtEventManager9GetEventLEm @ 32 NONAME
	_ZN16CEvtEventManagerD0Ev @ 33 NONAME
	_ZN16CEvtEventManagerD1Ev @ 34 NONAME
	_ZN16CEvtEventManagerD2Ev @ 35 NONAME
	_ZN16CEvtMgmtUiEngine11SetObserverEP24MEvtMgmtUiEngineObserver @ 36 NONAME
	_ZN16CEvtMgmtUiEngine12DeleteEventLEm @ 37 NONAME
	_ZN16CEvtMgmtUiEngine12ModifyEventLER9CEvtEventm @ 38 NONAME
	_ZN16CEvtMgmtUiEngine12UpdateModelLER13RPointerArrayI18CEvtBasicEventInfoENS_21TEvtEventStatusFilterE @ 39 NONAME
	_ZN16CEvtMgmtUiEngine13CancelRequestEv @ 40 NONAME
	_ZN16CEvtMgmtUiEngine13DeleteEventsLEPK6RArrayImE @ 41 NONAME
	_ZN16CEvtMgmtUiEngine14RemoveObserverEP24MEvtMgmtUiEngineObserver @ 42 NONAME
	_ZN16CEvtMgmtUiEngine14SetEventStateLE15TEvtEventStatusm @ 43 NONAME
	_ZN16CEvtMgmtUiEngine15SetEventsStateLE15TEvtEventStatusPK6RArrayImE @ 44 NONAME
	_ZN16CEvtMgmtUiEngine17RetrieveLocationLEmR11TCoordinate @ 45 NONAME
	_ZN16CEvtMgmtUiEngine23CalculateFiredAccuracyLEm @ 46 NONAME
	_ZN16CEvtMgmtUiEngine24HandleFiredTriggerStateLEm @ 47 NONAME
	_ZN16CEvtMgmtUiEngine4NewLEv @ 48 NONAME
	_ZN16CEvtMgmtUiEngine5NewLCEv @ 49 NONAME
	_ZN16CEvtMgmtUiEngine6EventLEm @ 50 NONAME
	_ZN16CEvtMgmtUiEngine8SyncDbsLEv @ 51 NONAME
	_ZN16CEvtMgmtUiEngine9AddEventLER9CEvtEvent @ 52 NONAME
	_ZN18CEvtBasicEventInfo10ConstructLEv @ 53 NONAME
	_ZN18CEvtBasicEventInfo10SetEventIdEm @ 54 NONAME
	_ZN18CEvtBasicEventInfo11SetSubjectLERK7TDesC16 @ 55 NONAME
	_ZN18CEvtBasicEventInfo14SetEventStatusE15TEvtEventStatus @ 56 NONAME
	_ZN18CEvtBasicEventInfo4NewLEv @ 57 NONAME
	_ZN18CEvtBasicEventInfo5NewLCEv @ 58 NONAME
	_ZN18CEvtBasicEventInfo9SetPlaceLERK7TDesC16 @ 59 NONAME
	_ZN18CEvtBasicEventInfo9SetRepeatEi @ 60 NONAME
	_ZN18CEvtBasicEventInfoC1Ev @ 61 NONAME
	_ZN18CEvtBasicEventInfoC2Ev @ 62 NONAME
	_ZN18CEvtBasicEventInfoD0Ev @ 63 NONAME
	_ZN18CEvtBasicEventInfoD1Ev @ 64 NONAME
	_ZN18CEvtBasicEventInfoD2Ev @ 65 NONAME
	_ZN9CEvtEvent10ConstructLEv @ 66 NONAME
	_ZN9CEvtEvent10SetActionLEP10CEvtAction @ 67 NONAME
	_ZN9CEvtEvent10SetEventIdEm @ 68 NONAME
	_ZN9CEvtEvent11SetSubjectLERK7TDesC16 @ 69 NONAME
	_ZN9CEvtEvent14SetEventStatusE15TEvtEventStatus @ 70 NONAME
	_ZN9CEvtEvent15SetDescriptionLERK7TDesC16 @ 71 NONAME
	_ZN9CEvtEvent4NewLEv @ 72 NONAME
	_ZN9CEvtEvent5NewLCEv @ 73 NONAME
	_ZN9CEvtEvent9HasActionEv @ 74 NONAME
	_ZN9CEvtEvent9SetPlaceLERK7TDesC16 @ 75 NONAME
	_ZN9CEvtEvent9SetRadiusEd @ 76 NONAME
	_ZN9CEvtEvent9SetRepeatEi @ 77 NONAME
	_ZNK10CEvtAction4TypeEv @ 78 NONAME
	_ZNK14CEvtToneAction8FileNameEv @ 79 NONAME
	_ZNK14CEvtToneAction8ToneLoopEv @ 80 NONAME
	_ZNK18CEvtBasicEventInfo11EventStatusEv @ 81 NONAME
	_ZNK18CEvtBasicEventInfo5PlaceEv @ 82 NONAME
	_ZNK18CEvtBasicEventInfo6RepeatEv @ 83 NONAME
	_ZNK18CEvtBasicEventInfo7EventIdEv @ 84 NONAME
	_ZNK18CEvtBasicEventInfo7SubjectEv @ 85 NONAME
	_ZNK9CEvtEvent11DescriptionEv @ 86 NONAME
	_ZNK9CEvtEvent11EventStatusEv @ 87 NONAME
	_ZNK9CEvtEvent5PlaceEv @ 88 NONAME
	_ZNK9CEvtEvent6ActionEv @ 89 NONAME
	_ZNK9CEvtEvent6RadiusEv @ 90 NONAME
	_ZNK9CEvtEvent6RepeatEv @ 91 NONAME
	_ZNK9CEvtEvent7EventIdEv @ 92 NONAME
	_ZNK9CEvtEvent7SubjectEv @ 93 NONAME
	_ZNK9CEvtEvent8LocationEv @ 94 NONAME
	_ZTI10CEvtAction @ 95 NONAME ; #<TI>#
	_ZTI12CEvtDatabase @ 96 NONAME ; #<TI>#
	_ZTI14CEvtDbNotifier @ 97 NONAME ; #<TI>#
	_ZTI14CEvtToneAction @ 98 NONAME ; #<TI>#
	_ZTI16CEvtEventManager @ 99 NONAME ; #<TI>#
	_ZTI16CEvtMgmtUiEngine @ 100 NONAME ; #<TI>#
	_ZTI18CEvtBasicEventInfo @ 101 NONAME ; #<TI>#
	_ZTI20CEvtMgmtUiLbtAdapter @ 102 NONAME ; #<TI>#
	_ZTI9CEvtEvent @ 103 NONAME ; #<TI>#
	_ZTV10CEvtAction @ 104 NONAME ; #<VT>#
	_ZTV12CEvtDatabase @ 105 NONAME ; #<VT>#
	_ZTV14CEvtDbNotifier @ 106 NONAME ; #<VT>#
	_ZTV14CEvtToneAction @ 107 NONAME ; #<VT>#
	_ZTV16CEvtEventManager @ 108 NONAME ; #<VT>#
	_ZTV16CEvtMgmtUiEngine @ 109 NONAME ; #<VT>#
	_ZTV18CEvtBasicEventInfo @ 110 NONAME ; #<VT>#
	_ZTV20CEvtMgmtUiLbtAdapter @ 111 NONAME ; #<VT>#
	_ZTV9CEvtEvent @ 112 NONAME ; #<VT>#

