EXPORTS
	_ZN13CEvtEventsDlg12SetMopParentEP15MObjectProvider @ 1 NONAME
	_ZN13CEvtEventsDlg14SetHelpContextE15TCoeHelpContext @ 2 NONAME
	_ZN13CEvtEventsDlg4NewLEiR9CEvtEventR16CEvtMgmtUiEnginei @ 3 NONAME
	_ZN13CEvtEventsDlg9ExecuteLDEv @ 4 NONAME
	_ZN13CEvtEventsDlgD0Ev @ 5 NONAME
	_ZN13CEvtEventsDlgD1Ev @ 6 NONAME
	_ZN13CEvtEventsDlgD2Ev @ 7 NONAME
	_ZTI10CEvtEditor @ 8 NONAME ; #<TI>#
	_ZTI13CEvtEventsDlg @ 9 NONAME ; #<TI>#
	_ZTI23CEvtMgmtUiDescComponent @ 10 NONAME ; #<TI>#
	_ZTI24CEvtMgmtUiPlaceComponent @ 11 NONAME ; #<TI>#
	_ZTI26CEvtMgmtUiEditorCmdHandler @ 12 NONAME ; #<TI>#
	_ZTI26CEvtMgmtUiSysOfMeasurement @ 13 NONAME ; #<TI>#
	_ZTI27CEvtMgmtUiRingtoneComponent @ 14 NONAME ; #<TI>#
	_ZTI29CEvtMgmtUiLocSettingsLauncher @ 15 NONAME ; #<TI>#
	_ZTI30CEvtMgmtUiMapNavigationAdapter @ 16 NONAME ; #<TI>#
	_ZTI32CEvtMgmtUiLocationServiceAdapter @ 17 NONAME ; #<TI>#
	_ZTV10CEvtEditor @ 18 NONAME ; #<VT>#
	_ZTV13CEvtEventsDlg @ 19 NONAME ; #<VT>#
	_ZTV23CEvtMgmtUiDescComponent @ 20 NONAME ; #<VT>#
	_ZTV24CEvtMgmtUiPlaceComponent @ 21 NONAME ; #<VT>#
	_ZTV26CEvtMgmtUiEditorCmdHandler @ 22 NONAME ; #<VT>#
	_ZTV26CEvtMgmtUiSysOfMeasurement @ 23 NONAME ; #<VT>#
	_ZTV27CEvtMgmtUiRingtoneComponent @ 24 NONAME ; #<VT>#
	_ZTV29CEvtMgmtUiLocSettingsLauncher @ 25 NONAME ; #<VT>#
	_ZTV30CEvtMgmtUiMapNavigationAdapter @ 26 NONAME ; #<VT>#
	_ZTV32CEvtMgmtUiLocationServiceAdapter @ 27 NONAME ; #<VT>#

