EXPORTS
	??1CLmkMapNavigationInterface@@UAE@XZ @ 1 NONAME ; CLmkMapNavigationInterface::~CLmkMapNavigationInterface(void)
	?AllLandmarksEmptyNoteL@LmkNotes@@SAXPAVCEikonEnv@@@Z @ 2 NONAME ; void LmkNotes::AllLandmarksEmptyNoteL(class CEikonEnv *)
	?AttachAIWInterestL@CLmkMapNavigationInterface@@QAEXHH@Z @ 3 NONAME ; void CLmkMapNavigationInterface::AttachAIWInterestL(int, int)
	?AttachMenuPaneL@CLmkMapNavigationInterface@@QAEXPAVCEikMenuPane@@HH@Z @ 4 NONAME ; void CLmkMapNavigationInterface::AttachMenuPaneL(class CEikMenuPane *, int, int)
	?CategoryConfirmationQueryL@LmkNotes@@SAHPAVCEikonEnv@@H@Z @ 5 NONAME ; int LmkNotes::CategoryConfirmationQueryL(class CEikonEnv *, int)
	?CategoryEmptyNoteL@LmkNotes@@SAXPAVCEikonEnv@@VTPtrC16@@@Z @ 6 NONAME ; void LmkNotes::CategoryEmptyNoteL(class CEikonEnv *, class TPtrC16)
	?CategoryNameL@CLmkAppLmSelectorImpl@@QAE?AVTPtrC16@@XZ @ 7 NONAME ; class TPtrC16 CLmkAppLmSelectorImpl::CategoryNameL(void)
	?CategoryNameQueryL@LmkNotes@@SAHAAVTDes16@@H@Z @ 8 NONAME ; int LmkNotes::CategoryNameQueryL(class TDes16 &, int)
	?ChangeLmNameLabelIconL@CLmkUiUtils@@SAXAAVMLmkEditorUiBuilder@@AAVMLmkFieldData@@@Z @ 9 NONAME ; void CLmkUiUtils::ChangeLmNameLabelIconL(class MLmkEditorUiBuilder &, class MLmkFieldData &)
	?ChangeTitlePaneL@CLmkUiUtils@@SAXH@Z @ 10 NONAME ; void CLmkUiUtils::ChangeTitlePaneL(int)
	?ChangeTitlePaneL@CLmkUiUtils@@SAXPAVHBufC16@@@Z @ 11 NONAME ; void CLmkUiUtils::ChangeTitlePaneL(class HBufC16 *)
	?CreateFindBoxL@CLmkAppSelectorImplBase@@QAEPAVCAknSearchField@@ABVCCoeControl@@@Z @ 12 NONAME ; class CAknSearchField * CLmkAppSelectorImplBase::CreateFindBoxL(class CCoeControl const &)
	?CurrentCategoryId@CLmkAppCategorySelectorImpl@@QAEHXZ @ 13 NONAME ; int CLmkAppCategorySelectorImpl::CurrentCategoryId(void)
	?CurrentItemIndex@CLmkAppSelectorImplBase@@QAEHXZ @ 14 NONAME ; int CLmkAppSelectorImplBase::CurrentItemIndex(void)
	?DetachInterestL@CLmkMapNavigationInterface@@QAEXHH@Z @ 15 NONAME ; void CLmkMapNavigationInterface::DetachInterestL(int, int)
	?DisableMapAndNavigationMenuOptions@CLmkEditorImpl@@QAEXXZ @ 16 NONAME ; void CLmkEditorImpl::DisableMapAndNavigationMenuOptions(void)
	?DisplaySendCascadeMenuL@CLmkSender@@QBEXAAVCEikMenuPane@@@Z @ 17 NONAME ; void CLmkSender::DisplaySendCascadeMenuL(class CEikMenuPane &) const
	?DisplaySendMenuL@CLmkSender@@QBEXAAVCEikMenuPane@@HH@Z @ 18 NONAME ; void CLmkSender::DisplaySendMenuL(class CEikMenuPane &, int, int) const
	?ExecuteLD@CLmkEditorImpl@@QAEHXZ @ 19 NONAME ; int CLmkEditorImpl::ExecuteLD(void)
	?GenericMessageQueryL@LmkNotes@@SAHPAVCEikonEnv@@HH@Z @ 20 NONAME ; int LmkNotes::GenericMessageQueryL(class CEikonEnv *, int, int)
	?GetFileWithCorrectDriveL@CLmkUiUtils@@SAXAAV?$TBuf@$0BAA@@@@Z @ 21 NONAME ; void CLmkUiUtils::GetFileWithCorrectDriveL(class TBuf<256> &)
	?GetLandmarkFromMapForCategoryL@CLmkMapNavigationInterface@@QAEXHK@Z @ 22 NONAME ; void CLmkMapNavigationInterface::GetLandmarkFromMapForCategoryL(int, unsigned long)
	?GetLandmarkFromMapL@CLmkMapNavigationInterface@@QAEXH@Z @ 23 NONAME ; void CLmkMapNavigationInterface::GetLandmarkFromMapL(int)
	?GetServiceCmdByMenuCmd@CLmkMapNavigationInterface@@QAEHH@Z @ 24 NONAME ; int CLmkMapNavigationInterface::GetServiceCmdByMenuCmd(int)
	?HandleMenuOperationL@CLmkMapNavigationInterface@@QAEHHPAVCEikMenuPane@@H@Z @ 25 NONAME ; int CLmkMapNavigationInterface::HandleMenuOperationL(int, class CEikMenuPane *, int)
	?HandleNotifyL@CLmkMapNavigationInterface@@UAEHHHAAVCAiwGenericParamList@@ABV2@@Z @ 26 NONAME ; int CLmkMapNavigationInterface::HandleNotifyL(int, int, class CAiwGenericParamList &, class CAiwGenericParamList const &)
	?InformationNoteL@LmkNotes@@SAXPAVCEikonEnv@@H@Z @ 27 NONAME ; void LmkNotes::InformationNoteL(class CEikonEnv *, int)
	?InformationNotewithTextL@LmkNotes@@SAXPAVCEikonEnv@@HVTPtrC16@@@Z @ 28 NONAME ; void LmkNotes::InformationNotewithTextL(class CEikonEnv *, int, class TPtrC16)
	?IsCriteriaUnCategorizedCat@CLmkAppLmSelectorImpl@@QAEHXZ @ 29 NONAME ; int CLmkAppLmSelectorImpl::IsCriteriaUnCategorizedCat(void)
	?IsPredefinedCategoryL@CLmkAppCategorySettingsImpl@@QAEHXZ @ 30 NONAME ; int CLmkAppCategorySettingsImpl::IsPredefinedCategoryL(void)
	?LandmarkConfirmationQueryL@LmkNotes@@SAHPAVCEikonEnv@@H@Z @ 31 NONAME ; int LmkNotes::LandmarkConfirmationQueryL(class CEikonEnv *, int)
	?LandmarkInCategoryEmptyNoteL@LmkNotes@@SAXPAVCEikonEnv@@VTPtrC16@@1@Z @ 32 NONAME ; void LmkNotes::LandmarkInCategoryEmptyNoteL(class CEikonEnv *, class TPtrC16, class TPtrC16)
	?LandmarksEmptyNoteL@LmkNotes@@SAXPAVCEikonEnv@@VTPtrC16@@@Z @ 33 NONAME ; void LmkNotes::LandmarksEmptyNoteL(class CEikonEnv *, class TPtrC16)
	?LaunchPosSettingsL@CLmkAppLmItemSelectorImpl@@IAEXXZ @ 34 NONAME ; void CLmkAppLmItemSelectorImpl::LaunchPosSettingsL(void)
	?MarkedIndexes@CLmkAppSelectorImplBase@@QAEPBV?$CArrayFix@H@@XZ @ 35 NONAME ; class CArrayFix<int> const * CLmkAppSelectorImplBase::MarkedIndexes(void)
	?MemorizedItemId@CLmkLmItemListMemento@@QBEKXZ @ 36 NONAME ; unsigned long CLmkLmItemListMemento::MemorizedItemId(void) const
	?MessageQueryL@LmkNotes@@SAXPAVCEikonEnv@@AAVTDes16@@H@Z @ 37 NONAME ; void LmkNotes::MessageQueryL(class CEikonEnv *, class TDes16 &, int)
	?MessageQueryWithLinkL@LmkNotes@@SAHPAVCEikonEnv@@HHHVTCallBack@@@Z @ 38 NONAME ; int LmkNotes::MessageQueryWithLinkL(class CEikonEnv *, int, int, int, class TCallBack)
	?NavigateToLandmarkL@CLmkMapNavigationInterface@@QAEXPAVCPosLandmark@@H@Z @ 39 NONAME ; void CLmkMapNavigationInterface::NavigateToLandmarkL(class CPosLandmark *, int)
	?NewL@CLmkAppCategorySelectorImpl@@SAPAV1@AAVCPosLandmarkDatabase@@AAVCLmkSender@@H@Z @ 40 NONAME ; class CLmkAppCategorySelectorImpl * CLmkAppCategorySelectorImpl::NewL(class CPosLandmarkDatabase &, class CLmkSender &, int)
	?NewL@CLmkAppCategorySettingsImpl@@SAPAV1@AAVCPosLandmarkDatabase@@AAVCLmkSender@@H@Z @ 41 NONAME ; class CLmkAppCategorySettingsImpl * CLmkAppCategorySettingsImpl::NewL(class CPosLandmarkDatabase &, class CLmkSender &, int)
	?NewL@CLmkAppLmSelectorImpl@@SAPAV1@AAVCPosLandmarkDatabase@@AAVCLmkSender@@H@Z @ 42 NONAME ; class CLmkAppLmSelectorImpl * CLmkAppLmSelectorImpl::NewL(class CPosLandmarkDatabase &, class CLmkSender &, int)
	?NewL@CLmkAppLmSelectorImpl@@SAPAV1@AAVCPosLandmarkDatabase@@ABVMLmkListMemento@@AAVCLmkSender@@H@Z @ 43 NONAME ; class CLmkAppLmSelectorImpl * CLmkAppLmSelectorImpl::NewL(class CPosLandmarkDatabase &, class MLmkListMemento const &, class CLmkSender &, int)
	?NewL@CLmkCallCmd@@SAPAV1@XZ @ 44 NONAME ; class CLmkCallCmd * CLmkCallCmd::NewL(void)
	?NewL@CLmkDlgCategorySelectorImpl@@SAPAV1@AAVCPosLandmarkDatabase@@HH@Z @ 45 NONAME ; class CLmkDlgCategorySelectorImpl * CLmkDlgCategorySelectorImpl::NewL(class CPosLandmarkDatabase &, int, int)
	?NewL@CLmkDlgCombiSelectorImpl@@SAPAV1@AAVCPosLandmarkDatabase@@@Z @ 46 NONAME ; class CLmkDlgCombiSelectorImpl * CLmkDlgCombiSelectorImpl::NewL(class CPosLandmarkDatabase &)
	?NewL@CLmkDlgLmSelectorImpl@@SAPAV1@AAVCPosLandmarkDatabase@@@Z @ 47 NONAME ; class CLmkDlgLmSelectorImpl * CLmkDlgLmSelectorImpl::NewL(class CPosLandmarkDatabase &)
	?NewL@CLmkDlgLmSelectorImpl@@SAPAV1@AAVCPosLandmarkDatabase@@PAVCPosLmSearchCriteria@@@Z @ 48 NONAME ; class CLmkDlgLmSelectorImpl * CLmkDlgLmSelectorImpl::NewL(class CPosLandmarkDatabase &, class CPosLmSearchCriteria *)
	?NewL@CLmkDlgPackageSelectorImpl@@SAPAV1@AAVCPosLandmarkDatabase@@AAVCLmkParser@@AAVCLmkSender@@@Z @ 49 NONAME ; class CLmkDlgPackageSelectorImpl * CLmkDlgPackageSelectorImpl::NewL(class CPosLandmarkDatabase &, class CLmkParser &, class CLmkSender &)
	?NewL@CLmkEditorImpl@@SAPAV1@AAVCPosLandmarkDatabase@@AAVCLmkSender@@KHK@Z @ 50 NONAME ; class CLmkEditorImpl * CLmkEditorImpl::NewL(class CPosLandmarkDatabase &, class CLmkSender &, unsigned long, int, unsigned long)
	?NewL@CLmkEditorImpl@@SAPAV1@AAVCPosLandmarkDatabase@@AAVCLmkSender@@KHPAKPAVCPosLandmark@@@Z @ 51 NONAME ; class CLmkEditorImpl * CLmkEditorImpl::NewL(class CPosLandmarkDatabase &, class CLmkSender &, unsigned long, int, unsigned long *, class CPosLandmark *)
	?NewL@CLmkEditorImpl@@SAPAV1@AAVCPosLandmarkDatabase@@AAVCLmkSender@@KHPAVCPosLandmark@@@Z @ 52 NONAME ; class CLmkEditorImpl * CLmkEditorImpl::NewL(class CPosLandmarkDatabase &, class CLmkSender &, unsigned long, int, class CPosLandmark *)
	?NewL@CLmkGoToURLCmd@@SAPAV1@XZ @ 53 NONAME ; class CLmkGoToURLCmd * CLmkGoToURLCmd::NewL(void)
	?NewL@CLmkMapNavigationInterface@@SAPAV1@AAVCPosLandmarkDatabase@@@Z @ 54 NONAME ; class CLmkMapNavigationInterface * CLmkMapNavigationInterface::NewL(class CPosLandmarkDatabase &)
	?NewL@CLmkPackageEditorImpl@@SAPAV1@AAVCPosLandmarkDatabase@@AAVCLmkParser@@AAVCLmkSender@@H@Z @ 55 NONAME ; class CLmkPackageEditorImpl * CLmkPackageEditorImpl::NewL(class CPosLandmarkDatabase &, class CLmkParser &, class CLmkSender &, int)
	?NewL@CLmkSaveLandmarkUtils@@SAPAV1@AAVCPosLandmarkDatabase@@AAVCLmkParser@@@Z @ 56 NONAME ; class CLmkSaveLandmarkUtils * CLmkSaveLandmarkUtils::NewL(class CPosLandmarkDatabase &, class CLmkParser &)
	?NewL@CLmkSender@@SAPAV1@AAVCPosLandmarkDatabase@@@Z @ 57 NONAME ; class CLmkSender * CLmkSender::NewL(class CPosLandmarkDatabase &)
	?OutOfMemoryNoteL@LmkNotes@@SAXPAVCEikonEnv@@@Z @ 58 NONAME ; void LmkNotes::OutOfMemoryNoteL(class CEikonEnv *)
	?Release@CLmkMapNavigationInterface@@QAEXXZ @ 59 NONAME ; void CLmkMapNavigationInterface::Release(void)
	?RemoveLandmarksFromCategoryL@CLmkAppLmSelectorImpl@@QAEXXZ @ 60 NONAME ; void CLmkAppLmSelectorImpl::RemoveLandmarksFromCategoryL(void)
	?RestoreMemento@CLmkAppSelectorImplBase@@QAEXXZ @ 61 NONAME ; void CLmkAppSelectorImplBase::RestoreMemento(void)
	?SetHelpContext@CLmkEditorImpl@@QAEXVTCoeHelpContext@@@Z @ 62 NONAME ; void CLmkEditorImpl::SetHelpContext(class TCoeHelpContext)
	?SetMemento@CLmkSelectorImplBase@@QAEXAAVMLmkListMemento@@@Z @ 63 NONAME ; void CLmkSelectorImplBase::SetMemento(class MLmkListMemento &)
	?SetMopParent@CLmkDlgSelectorImplBase@@QAEXPAVMObjectProvider@@@Z @ 64 NONAME ; void CLmkDlgSelectorImplBase::SetMopParent(class MObjectProvider *)
	?SetMopParent@CLmkEditorImpl@@QAEXPAVMObjectProvider@@@Z @ 65 NONAME ; void CLmkEditorImpl::SetMopParent(class MObjectProvider *)
	?SetMskObserver@CLmkAppSelectorImplBase@@QAEXPAVMLmkMskObserver@@@Z @ 66 NONAME ; void CLmkAppSelectorImplBase::SetMskObserver(class MLmkMskObserver *)
	?SetObserver@CLmkMapNavigationInterface@@QAEXPAVMLmkMapAndNavigationObserver@@@Z @ 67 NONAME ; void CLmkMapNavigationInterface::SetObserver(class MLmkMapAndNavigationObserver *)
	?ShowCategoryOnMapL@CLmkMapNavigationInterface@@QAEXKHW4EViewType@1@@Z @ 68 NONAME ; void CLmkMapNavigationInterface::ShowCategoryOnMapL(unsigned long, int, enum CLmkMapNavigationInterface::EViewType)
	?ShowDelayedInfoPopupL@LmkNotes@@SAPAVCAknInfoPopupNoteController@@AAVTDesC16@@AAVTPoint@@@Z @ 69 NONAME ; class CAknInfoPopupNoteController * LmkNotes::ShowDelayedInfoPopupL(class TDesC16 &, class TPoint &)
	?ShowLandmarksOnMapL@CLmkMapNavigationInterface@@QAEXAAV?$RPointerArray@VCPosLandmark@@@@HW4EViewType@1@@Z @ 70 NONAME ; void CLmkMapNavigationInterface::ShowLandmarksOnMapL(class RPointerArray<class CPosLandmark> &, int, enum CLmkMapNavigationInterface::EViewType)
	?ShowOwerriteLocationQueryL@LmkNotes@@SAHPAVCEikonEnv@@@Z @ 71 NONAME ; int LmkNotes::ShowOwerriteLocationQueryL(class CEikonEnv *)
	?StoreMemento@CLmkAppSelectorImplBase@@QAEXXZ @ 72 NONAME ; void CLmkAppSelectorImplBase::StoreMemento(void)
	?StartSearchingLandmarksL@CLmkAppLmSelectorImpl@@QAEXABVTDesC16@@H@Z @ 73 NONAME ; void CLmkAppLmSelectorImpl::StartSearchingLandmarksL(class TDesC16 const &, int)

