EXPORTS
	??1CLmkMapNavigationInterface@@UAE@XZ @ 1 NONAME ; CLmkMapNavigationInterface::~CLmkMapNavigationInterface(void)
	?AllLandmarksEmptyNoteL@LmkNotes@@SAXXZ @ 2 NONAME ; void LmkNotes::AllLandmarksEmptyNoteL(void)
	?AttachAIWInterestL@CLmkMapNavigationInterface@@QAEXHH@Z @ 3 NONAME ; void CLmkMapNavigationInterface::AttachAIWInterestL(int, int)
	?AttachMenuPaneL@CLmkMapNavigationInterface@@QAEXPAVCEikMenuPane@@HH@Z @ 4 NONAME ; void CLmkMapNavigationInterface::AttachMenuPaneL(class CEikMenuPane *, int, int)
	?CategoryConfirmationQueryL@LmkNotes@@SAHH@Z @ 5 NONAME ; int LmkNotes::CategoryConfirmationQueryL(int)
	?CategoryEmptyNoteL@LmkNotes@@SAXVTPtrC16@@@Z @ 6 NONAME ; void LmkNotes::CategoryEmptyNoteL(class TPtrC16)
	?CategoryNameL@CLmkAppLmSelectorImpl@@QAE?AVTPtrC16@@XZ @ 7 NONAME ; class TPtrC16 CLmkAppLmSelectorImpl::CategoryNameL(void)
	?CategoryNameQueryL@LmkNotes@@SAHAAVTDes16@@H@Z @ 8 NONAME ; int LmkNotes::CategoryNameQueryL(class TDes16 &, int)
	?ChangeLmNameLabelIconL@CLmkUiUtils@@SAXAAVMLmkEditorUiBuilder@@AAVMLmkFieldData@@@Z @ 9 NONAME ; void CLmkUiUtils::ChangeLmNameLabelIconL(class MLmkEditorUiBuilder &, class MLmkFieldData &)
	?ChangeTitlePaneL@CLmkUiUtils@@SAXH@Z @ 10 NONAME ; void CLmkUiUtils::ChangeTitlePaneL(int)
	?ChangeTitlePaneL@CLmkUiUtils@@SAXPAVHBufC16@@@Z @ 11 NONAME ; void CLmkUiUtils::ChangeTitlePaneL(class HBufC16 *)
	?CreateFindBoxL@CLmkAppSelectorImplBase@@QAEPAVCAknSearchField@@ABVCCoeControl@@@Z @ 12 NONAME ; class CAknSearchField * CLmkAppSelectorImplBase::CreateFindBoxL(class CCoeControl const &)
	?CurrentCategoryId@CLmkAppCategorySelectorImpl@@QAEHXZ @ 13 NONAME ; int CLmkAppCategorySelectorImpl::CurrentCategoryId(void)
	?DetachInterestL@CLmkMapNavigationInterface@@QAEXHH@Z @ 14 NONAME ; void CLmkMapNavigationInterface::DetachInterestL(int, int)
	?DisableMapAndNavigationMenuOptions@CLmkEditorImpl@@QAEXXZ @ 15 NONAME ; void CLmkEditorImpl::DisableMapAndNavigationMenuOptions(void)
	?DisplaySendCascadeMenuL@CLmkSender@@QBEXAAVCEikMenuPane@@@Z @ 16 NONAME ; void CLmkSender::DisplaySendCascadeMenuL(class CEikMenuPane &) const
	?DisplaySendMenuL@CLmkSender@@QBEXAAVCEikMenuPane@@HH@Z @ 17 NONAME ; void CLmkSender::DisplaySendMenuL(class CEikMenuPane &, int, int) const
	?ExecuteLD@CLmkEditorImpl@@QAEHXZ @ 18 NONAME ; int CLmkEditorImpl::ExecuteLD(void)
	?GetFileWithCorrectDriveL@CLmkUiUtils@@SAXAAV?$TBuf@$0BAA@@@@Z @ 19 NONAME ; void CLmkUiUtils::GetFileWithCorrectDriveL(class TBuf<256> &)
	?GetLandmarkFromMapForCategoryL@CLmkMapNavigationInterface@@QAEXHK@Z @ 20 NONAME ; void CLmkMapNavigationInterface::GetLandmarkFromMapForCategoryL(int, unsigned long)
	?GetLandmarkFromMapL@CLmkMapNavigationInterface@@QAEXH@Z @ 21 NONAME ; void CLmkMapNavigationInterface::GetLandmarkFromMapL(int)
	?GetServiceCmdByMenuCmd@CLmkMapNavigationInterface@@QAEHH@Z @ 22 NONAME ; int CLmkMapNavigationInterface::GetServiceCmdByMenuCmd(int)
	?HandleMenuOperationL@CLmkMapNavigationInterface@@QAEHHPAVCEikMenuPane@@H@Z @ 23 NONAME ; int CLmkMapNavigationInterface::HandleMenuOperationL(int, class CEikMenuPane *, int)
	?HandleNotifyL@CLmkMapNavigationInterface@@UAEHHHAAVCAiwGenericParamList@@ABV2@@Z @ 24 NONAME ; int CLmkMapNavigationInterface::HandleNotifyL(int, int, class CAiwGenericParamList &, class CAiwGenericParamList const &)
	?InformationNoteL@LmkNotes@@SAXH@Z @ 25 NONAME ; void LmkNotes::InformationNoteL(int)
	?InformationNotewithTextL@LmkNotes@@SAXHVTPtrC16@@@Z @ 26 NONAME ; void LmkNotes::InformationNotewithTextL(int, class TPtrC16)
	?IsPredefinedCategoryL@CLmkAppCategorySettingsImpl@@QAEHXZ @ 27 NONAME ; int CLmkAppCategorySettingsImpl::IsPredefinedCategoryL(void)
	?LandmarkConfirmationQueryL@LmkNotes@@SAHH@Z @ 28 NONAME ; int LmkNotes::LandmarkConfirmationQueryL(int)
	?LandmarkInCategoryEmptyNoteL@LmkNotes@@SAXVTPtrC16@@0@Z @ 29 NONAME ; void LmkNotes::LandmarkInCategoryEmptyNoteL(class TPtrC16, class TPtrC16)
	?LandmarksEmptyNoteL@LmkNotes@@SAXVTPtrC16@@@Z @ 30 NONAME ; void LmkNotes::LandmarksEmptyNoteL(class TPtrC16)
	?MemorizedItemId@CLmkLmItemListMemento@@QBEKXZ @ 31 NONAME ; unsigned long CLmkLmItemListMemento::MemorizedItemId(void) const
	?MessageQueryL@LmkNotes@@SAXAAVTDes16@@H@Z @ 32 NONAME ; void LmkNotes::MessageQueryL(class TDes16 &, int)
	?NavigateToLandmarkL@CLmkMapNavigationInterface@@QAEXPAVCPosLandmark@@H@Z @ 33 NONAME ; void CLmkMapNavigationInterface::NavigateToLandmarkL(class CPosLandmark *, int)
	?NewL@CLmkAppCategorySelectorImpl@@SAPAV1@AAVCPosLandmarkDatabase@@AAVCLmkSender@@H@Z @ 34 NONAME ; class CLmkAppCategorySelectorImpl * CLmkAppCategorySelectorImpl::NewL(class CPosLandmarkDatabase &, class CLmkSender &, int)
	?NewL@CLmkAppCategorySettingsImpl@@SAPAV1@AAVCPosLandmarkDatabase@@AAVCLmkSender@@H@Z @ 35 NONAME ; class CLmkAppCategorySettingsImpl * CLmkAppCategorySettingsImpl::NewL(class CPosLandmarkDatabase &, class CLmkSender &, int)
	?NewL@CLmkAppLmSelectorImpl@@SAPAV1@AAVCPosLandmarkDatabase@@AAVCLmkSender@@H@Z @ 36 NONAME ; class CLmkAppLmSelectorImpl * CLmkAppLmSelectorImpl::NewL(class CPosLandmarkDatabase &, class CLmkSender &, int)
	?NewL@CLmkAppLmSelectorImpl@@SAPAV1@AAVCPosLandmarkDatabase@@ABVMLmkListMemento@@AAVCLmkSender@@H@Z @ 37 NONAME ; class CLmkAppLmSelectorImpl * CLmkAppLmSelectorImpl::NewL(class CPosLandmarkDatabase &, class MLmkListMemento const &, class CLmkSender &, int)
	?NewL@CLmkCallCmd@@SAPAV1@XZ @ 38 NONAME ; class CLmkCallCmd * CLmkCallCmd::NewL(void)
	?NewL@CLmkDlgCategorySelectorImpl@@SAPAV1@AAVCPosLandmarkDatabase@@HH@Z @ 39 NONAME ; class CLmkDlgCategorySelectorImpl * CLmkDlgCategorySelectorImpl::NewL(class CPosLandmarkDatabase &, int, int)
	?NewL@CLmkDlgCombiSelectorImpl@@SAPAV1@AAVCPosLandmarkDatabase@@@Z @ 40 NONAME ; class CLmkDlgCombiSelectorImpl * CLmkDlgCombiSelectorImpl::NewL(class CPosLandmarkDatabase &)
	?NewL@CLmkDlgLmSelectorImpl@@SAPAV1@AAVCPosLandmarkDatabase@@@Z @ 41 NONAME ; class CLmkDlgLmSelectorImpl * CLmkDlgLmSelectorImpl::NewL(class CPosLandmarkDatabase &)
	?NewL@CLmkDlgLmSelectorImpl@@SAPAV1@AAVCPosLandmarkDatabase@@PAVCPosLmSearchCriteria@@@Z @ 42 NONAME ; class CLmkDlgLmSelectorImpl * CLmkDlgLmSelectorImpl::NewL(class CPosLandmarkDatabase &, class CPosLmSearchCriteria *)
	?NewL@CLmkDlgPackageSelectorImpl@@SAPAV1@AAVCPosLandmarkDatabase@@AAVCLmkParser@@AAVCLmkSender@@@Z @ 43 NONAME ; class CLmkDlgPackageSelectorImpl * CLmkDlgPackageSelectorImpl::NewL(class CPosLandmarkDatabase &, class CLmkParser &, class CLmkSender &)
	?NewL@CLmkEditorImpl@@SAPAV1@AAVCPosLandmarkDatabase@@AAVCLmkSender@@KHK@Z @ 44 NONAME ; class CLmkEditorImpl * CLmkEditorImpl::NewL(class CPosLandmarkDatabase &, class CLmkSender &, unsigned long, int, unsigned long)
	?NewL@CLmkEditorImpl@@SAPAV1@AAVCPosLandmarkDatabase@@AAVCLmkSender@@KHPAKPAVCPosLandmark@@@Z @ 45 NONAME ; class CLmkEditorImpl * CLmkEditorImpl::NewL(class CPosLandmarkDatabase &, class CLmkSender &, unsigned long, int, unsigned long *, class CPosLandmark *)
	?NewL@CLmkEditorImpl@@SAPAV1@AAVCPosLandmarkDatabase@@AAVCLmkSender@@KHPAVCPosLandmark@@@Z @ 46 NONAME ; class CLmkEditorImpl * CLmkEditorImpl::NewL(class CPosLandmarkDatabase &, class CLmkSender &, unsigned long, int, class CPosLandmark *)
	?NewL@CLmkGoToURLCmd@@SAPAV1@XZ @ 47 NONAME ; class CLmkGoToURLCmd * CLmkGoToURLCmd::NewL(void)
	?NewL@CLmkMapNavigationInterface@@SAPAV1@AAVCPosLandmarkDatabase@@W4EViewType@1@@Z @ 48 NONAME ; class CLmkMapNavigationInterface * CLmkMapNavigationInterface::NewL(class CPosLandmarkDatabase &, enum CLmkMapNavigationInterface::EViewType)
	?NewL@CLmkPackageEditorImpl@@SAPAV1@AAVCPosLandmarkDatabase@@AAVCLmkParser@@AAVCLmkSender@@H@Z @ 49 NONAME ; class CLmkPackageEditorImpl * CLmkPackageEditorImpl::NewL(class CPosLandmarkDatabase &, class CLmkParser &, class CLmkSender &, int)
	?NewL@CLmkSaveLandmarkUtils@@SAPAV1@AAVCPosLandmarkDatabase@@AAVCLmkParser@@@Z @ 50 NONAME ; class CLmkSaveLandmarkUtils * CLmkSaveLandmarkUtils::NewL(class CPosLandmarkDatabase &, class CLmkParser &)
	?NewL@CLmkSender@@SAPAV1@AAVCPosLandmarkDatabase@@@Z @ 51 NONAME ; class CLmkSender * CLmkSender::NewL(class CPosLandmarkDatabase &)
	?OutOfMemoryNoteL@LmkNotes@@SAXXZ @ 52 NONAME ; void LmkNotes::OutOfMemoryNoteL(void)
	?RestoreMemento@CLmkAppSelectorImplBase@@QAEXXZ @ 53 NONAME ; void CLmkAppSelectorImplBase::RestoreMemento(void)
	?SetHelpContext@CLmkEditorImpl@@QAEXVTCoeHelpContext@@@Z @ 54 NONAME ; void CLmkEditorImpl::SetHelpContext(class TCoeHelpContext)
	?SetMemento@CLmkSelectorImplBase@@QAEXAAVMLmkListMemento@@@Z @ 55 NONAME ; void CLmkSelectorImplBase::SetMemento(class MLmkListMemento &)
	?SetMopParent@CLmkDlgSelectorImplBase@@QAEXPAVMObjectProvider@@@Z @ 56 NONAME ; void CLmkDlgSelectorImplBase::SetMopParent(class MObjectProvider *)
	?SetMopParent@CLmkEditorImpl@@QAEXPAVMObjectProvider@@@Z @ 57 NONAME ; void CLmkEditorImpl::SetMopParent(class MObjectProvider *)
	?SetObserver@CLmkMapNavigationInterface@@QAEXPAVMLmkMapAndNavigationObserver@@@Z @ 58 NONAME ; void CLmkMapNavigationInterface::SetObserver(class MLmkMapAndNavigationObserver *)
	?ShowCategoryOnMapL@CLmkMapNavigationInterface@@QAEXKH@Z @ 59 NONAME ; void CLmkMapNavigationInterface::ShowCategoryOnMapL(unsigned long, int)
	?ShowLandmarksOnMapL@CLmkMapNavigationInterface@@QAEXAAV?$RPointerArray@VCPosLandmark@@@@H@Z @ 60 NONAME ; void CLmkMapNavigationInterface::ShowLandmarksOnMapL(class RPointerArray<class CPosLandmark> &, int)
	?StoreMemento@CLmkAppSelectorImplBase@@QAEXXZ @ 61 NONAME ; void CLmkAppSelectorImplBase::StoreMemento(void)

