EXPORTS
	??0CLmkAOOperation@@IAE@PAVCPosLmOperation@@AAVMLmkAOOperationObserver@@W4TOperationTypes@2@H@Z @ 1 NONAME ; CLmkAOOperation::CLmkAOOperation(class CPosLmOperation *, class MLmkAOOperationObserver &, enum MLmkAOOperationObserver::TOperationTypes, int)
	??1CLmkAOOperation@@UAE@XZ @ 2 NONAME ; CLmkAOOperation::~CLmkAOOperation(void)
	??1CLmkDbSearchUtils@@UAE@XZ @ 3 NONAME ; CLmkDbSearchUtils::~CLmkDbSearchUtils(void)
	??1CLmkFields@@UAE@XZ @ 4 NONAME ; CLmkFields::~CLmkFields(void)
	?AddCategoryL@CLmkDbUtils@@SAXAAVCPosLandmarkCategory@@AAVCPosLandmarkDatabase@@@Z @ 5 NONAME ; void CLmkDbUtils::AddCategoryL(class CPosLandmarkCategory &, class CPosLandmarkDatabase &)
	?AddCategoryName@CLmkLandMarkCategoriesName@@QAEXABVTDesC16@@@Z @ 6 NONAME ; void CLmkLandMarkCategoriesName::AddCategoryName(class TDesC16 const &)
	?AddDefaultProtocolL@CLmkDbUtils@@SAXPAVCPosLandmark@@@Z @ 7 NONAME ; void CLmkDbUtils::AddDefaultProtocolL(class CPosLandmark *)
	?AddLmToCategoriesL@CLmkDbUtils@@QAEXKABV?$RArray@K@@@Z @ 8 NONAME ; void CLmkDbUtils::AddLmToCategoriesL(unsigned long, class RArray<unsigned long> const &)
	?AddLmToCategoryL@CLmkDbUtils@@SAXKKAAVCPosLandmarkDatabase@@@Z @ 9 NONAME ; void CLmkDbUtils::AddLmToCategoryL(unsigned long, unsigned long, class CPosLandmarkDatabase &)
	?AddLmsToCategoriesL@CLmkDbUtils@@QAEXABV?$RArray@K@@0@Z @ 10 NONAME ; void CLmkDbUtils::AddLmsToCategoriesL(class RArray<unsigned long> const &, class RArray<unsigned long> const &)
	?AddObserverL@CLmkListProviderBase@@QAEXAAVMLmkListProviderObserver@@@Z @ 11 NONAME ; void CLmkListProviderBase::AddObserverL(class MLmkListProviderObserver &)
	?CancelEncodeOperationL@CLmkEncoder@@QAEXXZ @ 12 NONAME ; void CLmkEncoder::CancelEncodeOperationL(void)
	?CancelImporting@CLmkParser@@QAEXXZ @ 13 NONAME ; void CLmkParser::CancelImporting(void)
	?CancelLmOperation@CLmkDbUtils@@QAEXXZ @ 14 NONAME ; void CLmkDbUtils::CancelLmOperation(void)
	?CancelRequest@CLmkLocationService@@QAEXXZ @ 15 NONAME ; void CLmkLocationService::CancelRequest(void)
	?Categories@CLmkLandmark@@QAEAAV?$RPointerArray@VCPosLandmarkCategory@@@@XZ @ 16 NONAME ; class RPointerArray<class CPosLandmarkCategory> & CLmkLandmark::Categories(void)
	?CategoryIdL@CLmkDbUtils@@QAEKAAVCPosLandmarkDatabase@@ABVTDesC16@@@Z @ 17 NONAME ; unsigned long CLmkDbUtils::CategoryIdL(class CPosLandmarkDatabase &, class TDesC16 const &)
	?CategoryNameL@CLmkDbUtils@@SAPAVHBufC16@@AAVCPosLandmarkDatabase@@K@Z @ 18 NONAME ; class HBufC16 * CLmkDbUtils::CategoryNameL(class CPosLandmarkDatabase &, unsigned long)
	?CategoryNameLC@CLmkParser@@QAEPAVCLmkLandMarkCategoriesName@@H@Z @ 19 NONAME ; class CLmkLandMarkCategoriesName * CLmkParser::CategoryNameLC(int)
	?ChangeIconL@CLmkDbUtils@@SAXAAVCPosLandmarkDatabase@@KW4TLmkItemType@@ABVTDesC16@@HH@Z @ 20 NONAME ; void CLmkDbUtils::ChangeIconL(class CPosLandmarkDatabase &, unsigned long, enum TLmkItemType, class TDesC16 const &, int, int)
	?ChangeIconsL@CLmkDbUtils@@QAEXABV?$RArray@K@@W4TLmkItemType@@ABVTDesC16@@HH@Z @ 21 NONAME ; void CLmkDbUtils::ChangeIconsL(class RArray<unsigned long> const &, enum TLmkItemType, class TDesC16 const &, int, int)
	?ChangeObserver@CLmkParser@@QAEXAAVMLmkAOOperationObserver@@@Z @ 22 NONAME ; void CLmkParser::ChangeObserver(class MLmkAOOperationObserver &)
	?CheckDiscSpaceL@CLmkFields@@QAEHXZ @ 23 NONAME ; int CLmkFields::CheckDiscSpaceL(void)
	?CompactDbL@CLmkDbUtils@@QAEXXZ @ 24 NONAME ; void CLmkDbUtils::CompactDbL(void)
	?CreateProviderL@LmkListProviderFactory@@SAPAVCLmkListProviderBase@@AAVCLmkParser@@@Z @ 25 NONAME ; class CLmkListProviderBase * LmkListProviderFactory::CreateProviderL(class CLmkParser &)
	?CreateProviderL@LmkListProviderFactory@@SAPAVCLmkListProviderBase@@AAVCPosLandmarkDatabase@@AAVCPosLmSearchCriteria@@@Z @ 26 NONAME ; class CLmkListProviderBase * LmkListProviderFactory::CreateProviderL(class CPosLandmarkDatabase &, class CPosLmSearchCriteria &)
	?CreateProviderL@LmkListProviderFactory@@SAPAVCLmkListProviderBase@@AAVCPosLandmarkDatabase@@W4TLmkSelectorType@@W4TLmkProviderType@@@Z @ 27 NONAME ; class CLmkListProviderBase * LmkListProviderFactory::CreateProviderL(class CPosLandmarkDatabase &, enum TLmkSelectorType, enum TLmkProviderType)
	?CurrentPosition@CLmkLocationService@@QAEAAVTPosition@@XZ @ 28 NONAME ; class TPosition & CLmkLocationService::CurrentPosition(void)
	?DeleteCategoriesL@CLmkDbUtils@@QAEXABV?$RArray@K@@@Z @ 29 NONAME ; void CLmkDbUtils::DeleteCategoriesL(class RArray<unsigned long> const &)
	?DeleteFileL@LmkFileUtils@@SAXABVTDesC16@@@Z @ 30 NONAME ; void LmkFileUtils::DeleteFileL(class TDesC16 const &)
	?DeleteLandmarkL@CLmkDbUtils@@SAXKAAVCPosLandmarkDatabase@@@Z @ 31 NONAME ; void CLmkDbUtils::DeleteLandmarkL(unsigned long, class CPosLandmarkDatabase &)
	?DeleteLandmarkL@CLmkFields@@QAEXXZ @ 32 NONAME ; void CLmkFields::DeleteLandmarkL(void)
	?DeleteLandmarksL@CLmkDbUtils@@QAEXABV?$RArray@K@@@Z @ 33 NONAME ; void CLmkDbUtils::DeleteLandmarksL(class RArray<unsigned long> const &)
	?ExtensionInt@CLmkUiItemBase@@QAEHXZ @ 34 NONAME ; int CLmkUiItemBase::ExtensionInt(void)
	?ExtensionIntExists@CLmkUiItemBase@@QAEHXZ @ 35 NONAME ; int CLmkUiItemBase::ExtensionIntExists(void)
	?Fields@CLmkFields@@QAEAAV?$CArrayPtrFlat@VMLmkFieldData@@@@XZ @ 36 NONAME ; class CArrayPtrFlat<class MLmkFieldData> & CLmkFields::Fields(void)
	?FileHandle@CLmkParser@@QAEAAVRFile@@XZ @ 37 NONAME ; class RFile & CLmkParser::FileHandle(void)
	?FileName@CLmkParser@@QAE?AVTPtrC16@@XZ @ 38 NONAME ; class TPtrC16 CLmkParser::FileName(void)
	?GetCategoryNameL@CLmkDbSearchUtils@@QAEPAVHBufC16@@K@Z @ 39 NONAME ; class HBufC16 * CLmkDbSearchUtils::GetCategoryNameL(unsigned long)
	?GetCategoryNames@CLmkLandMarkCategoriesName@@QBEXAAV?$RArray@V?$TBuf@$0HM@@@@@@Z @ 40 NONAME ; void CLmkLandMarkCategoriesName::GetCategoryNames(class RArray<class TBuf<124> > &) const
	?GetField@CLmkFields@@QAEPAVMLmkFieldData@@G@Z @ 41 NONAME ; class MLmkFieldData * CLmkFields::GetField(unsigned short)
	?GetLandmarkForIdL@CLmkDbSearchUtils@@QAEPAVCPosLandmark@@K@Z @ 42 NONAME ; class CPosLandmark * CLmkDbSearchUtils::GetLandmarkForIdL(unsigned long)
	?GetLandmarksL@CLmkDbSearchUtils@@QAEXPAVMLmkDbSearchUtilsObserver@@V?$RArray@K@@PAV?$RPointerArray@VCPosLandmark@@@@@Z @ 43 NONAME ; void CLmkDbSearchUtils::GetLandmarksL(class MLmkDbSearchUtilsObserver *, class RArray<unsigned long>, class RPointerArray<class CPosLandmark> *)
	?GetLandmarksUnderCategoryL@CLmkDbSearchUtils@@QAEXPAVMLmkDbSearchUtilsObserver@@K@Z @ 44 NONAME ; void CLmkDbSearchUtils::GetLandmarksUnderCategoryL(class MLmkDbSearchUtilsObserver *, unsigned long)
	?GetSelectedIndexesL@CLmkLmItemListProvider@@QBEXAAV?$CArrayFix@H@@ABV?$RArray@K@@@Z @ 45 NONAME ; void CLmkLmItemListProvider::GetSelectedIndexesL(class CArrayFix<int> &, class RArray<unsigned long> const &) const
	?GetSelectedItemId@CLmkLmItemListProvider@@QBEXAAKH@Z @ 46 NONAME ; void CLmkLmItemListProvider::GetSelectedItemId(unsigned long &, int) const
	?GetSelectedItemIdsL@CLmkLmItemListProvider@@QBEXAAV?$RArray@K@@ABV?$CArrayFix@H@@@Z @ 47 NONAME ; void CLmkLmItemListProvider::GetSelectedItemIdsL(class RArray<unsigned long> &, class CArrayFix<int> const &) const
	?InitializeDbL@CLmkDbUtils@@QAEXXZ @ 48 NONAME ; void CLmkDbUtils::InitializeDbL(void)
	?InitializeDbL@CLmkParser@@QAEXXZ @ 49 NONAME ; void CLmkParser::InitializeDbL(void)
	?IsFileHandle@CLmkParser@@QAEHXZ @ 50 NONAME ; int CLmkParser::IsFileHandle(void)
	?IsLmWithThisFieldExistL@CLmkDbUtils@@QAEHG@Z @ 51 NONAME ; int CLmkDbUtils::IsLmWithThisFieldExistL(unsigned short)
	?IsValidPathL@LmkFileUtils@@SAHVTPtrC16@@@Z @ 52 NONAME ; int LmkFileUtils::IsValidPathL(class TPtrC16)
	?LandmarkId@CLmkFields@@QBEKXZ @ 53 NONAME ; unsigned long CLmkFields::LandmarkId(void) const
	?LandmarkLC@CLmkParser@@QAEPAVCPosLandmark@@H@Z @ 54 NONAME ; class CPosLandmark * CLmkParser::LandmarkLC(int)
	?LmkLandmarkLC@CLmkParser@@QAEPAVCLmkLandmark@@H@Z @ 55 NONAME ; class CLmkLandmark * CLmkParser::LmkLandmarkLC(int)
	?LocationRequestL@CLmkLocationService@@QAEXXZ @ 56 NONAME ; void CLmkLocationService::LocationRequestL(void)
	?NewL@CLmkAOOperation@@SAPAV1@PAVCPosLmOperation@@AAVMLmkAOOperationObserver@@W4TOperationTypes@3@H@Z @ 57 NONAME ; class CLmkAOOperation * CLmkAOOperation::NewL(class CPosLmOperation *, class MLmkAOOperationObserver &, enum MLmkAOOperationObserver::TOperationTypes, int)
	?NewL@CLmkDbSearchUtils@@SAPAV1@XZ @ 58 NONAME ; class CLmkDbSearchUtils * CLmkDbSearchUtils::NewL(void)
	?NewL@CLmkDbUtils@@SAPAV1@AAVCPosLandmarkDatabase@@AAVMLmkAOOperationObserver@@H@Z @ 59 NONAME ; class CLmkDbUtils * CLmkDbUtils::NewL(class CPosLandmarkDatabase &, class MLmkAOOperationObserver &, int)
	?NewL@CLmkEncoder@@SAPAV1@AAVCPosLandmarkDatabase@@AAVMLmkAOOperationObserver@@H@Z @ 60 NONAME ; class CLmkEncoder * CLmkEncoder::NewL(class CPosLandmarkDatabase &, class MLmkAOOperationObserver &, int)
	?NewL@CLmkFields@@SAPAV1@AAV?$RPointerArray@VHBufC16@@@@AAVCPosLandmarkDatabase@@KKPAVCPosLandmark@@H@Z @ 61 NONAME ; class CLmkFields * CLmkFields::NewL(class RPointerArray<class HBufC16> &, class CPosLandmarkDatabase &, unsigned long, unsigned long, class CPosLandmark *, int)
	?NewL@CLmkLandMarkCategoriesName@@SAPAV1@AAV1@@Z @ 62 NONAME ; class CLmkLandMarkCategoriesName * CLmkLandMarkCategoriesName::NewL(class CLmkLandMarkCategoriesName &)
	?NewL@CLmkLandMarkCategoriesName@@SAPAV1@XZ @ 63 NONAME ; class CLmkLandMarkCategoriesName * CLmkLandMarkCategoriesName::NewL(void)
	?NewL@CLmkLandmark@@SAPAV1@ABV1@@Z @ 64 NONAME ; class CLmkLandmark * CLmkLandmark::NewL(class CLmkLandmark const &)
	?NewL@CLmkLandmark@@SAPAV1@PBVCPosLandmark@@ABV?$RPointerArray@VCPosLandmarkCategory@@@@@Z @ 65 NONAME ; class CLmkLandmark * CLmkLandmark::NewL(class CPosLandmark const *, class RPointerArray<class CPosLandmarkCategory> const &)
	?NewL@CLmkLocationService@@SAPAV1@ABVTDesC16@@@Z @ 66 NONAME ; class CLmkLocationService * CLmkLocationService::NewL(class TDesC16 const &)
	?NewL@CLmkParser@@SAPAV1@AAVRFile@@AAVCPosLandmarkDatabase@@AAVMLmkAOOperationObserver@@H@Z @ 67 NONAME ; class CLmkParser * CLmkParser::NewL(class RFile &, class CPosLandmarkDatabase &, class MLmkAOOperationObserver &, int)
	?NewL@CLmkParser@@SAPAV1@ABVTDesC16@@AAVCPosLandmarkDatabase@@AAVMLmkAOOperationObserver@@H@Z @ 68 NONAME ; class CLmkParser * CLmkParser::NewL(class TDesC16 const &, class CPosLandmarkDatabase &, class MLmkAOOperationObserver &, int)
	?NumOfParsedLandmarks@CLmkParser@@QAEHXZ @ 69 NONAME ; int CLmkParser::NumOfParsedLandmarks(void)
	?PackageName@CLmkParser@@QAE?AVTPtrC16@@XZ @ 70 NONAME ; class TPtrC16 CLmkParser::PackageName(void)
	?PosLandmark@CLmkLandmark@@QAEPAVCPosLandmark@@XZ @ 71 NONAME ; class CPosLandmark * CLmkLandmark::PosLandmark(void)
	?RemoveDefaultProtocolL@CLmkDbUtils@@SAXAAVTPtr16@@@Z @ 72 NONAME ; void CLmkDbUtils::RemoveDefaultProtocolL(class TPtr16 &)
	?RemoveEnterCharacter@CLmkFields@@SA?AVTPtr16@@VTPtrC16@@@Z @ 73 NONAME ; class TPtr16 CLmkFields::RemoveEnterCharacter(class TPtrC16)
	?RemoveModelObserver@CLmkLocationService@@QAEXXZ @ 74 NONAME ; void CLmkLocationService::RemoveModelObserver(void)
	?RemoveObserver@CLmkListProviderBase@@QAEHAAVMLmkListProviderObserver@@@Z @ 75 NONAME ; int CLmkListProviderBase::RemoveObserver(class MLmkListProviderObserver &)
	?RenameCategoryL@CLmkDbUtils@@SAXAAVTDesC16@@KAAVCPosLandmarkDatabase@@@Z @ 76 NONAME ; void CLmkDbUtils::RenameCategoryL(class TDesC16 &, unsigned long, class CPosLandmarkDatabase &)
	?SaveFieldsL@CLmkFields@@QAEXXZ @ 77 NONAME ; void CLmkFields::SaveFieldsL(void)
	?SelectedIndex@CLmkLmItemListProvider@@QBEHK@Z @ 78 NONAME ; int CLmkLmItemListProvider::SelectedIndex(unsigned long) const
	?SelectedIndexesL@CLmkLmItemListProvider@@QBEPAV?$CArrayFix@H@@ABV?$RArray@K@@@Z @ 79 NONAME ; class CArrayFix<int> * CLmkLmItemListProvider::SelectedIndexesL(class RArray<unsigned long> const &) const
	?SetCategoryNames@CLmkLandMarkCategoriesName@@QAEXAAV?$RArray@V?$TBuf@$0HM@@@@@@Z @ 80 NONAME ; void CLmkLandMarkCategoriesName::SetCategoryNames(class RArray<class TBuf<124> > &)
	?SetExtensionInt@CLmkUiItemBase@@QAEXH@Z @ 81 NONAME ; void CLmkUiItemBase::SetExtensionInt(int)
	?SetIconMgrL@CLmkListProviderBase@@QAEXAAVMLmkSelectorIconMgr@@@Z @ 82 NONAME ; void CLmkListProviderBase::SetIconMgrL(class MLmkSelectorIconMgr &)
	?SetObserver@CLmkLocationService@@QAEXAAVMLmkLocationObserver@@@Z @ 83 NONAME ; void CLmkLocationService::SetObserver(class MLmkLocationObserver &)
	?StartEncodingL@CLmkEncoder@@QAEXABVTDesC16@@ABV?$RArray@K@@@Z @ 84 NONAME ; void CLmkEncoder::StartEncodingL(class TDesC16 const &, class RArray<unsigned long> const &)
	?StartEncodingL@CLmkEncoder@@QAEXABVTDesC16@@ABV?$RPointerArray@VCLmkLandmark@@@@@Z @ 85 NONAME ; void CLmkEncoder::StartEncodingL(class TDesC16 const &, class RPointerArray<class CLmkLandmark> const &)
	?StartImportingL@CLmkParser@@QAEXABV?$RArray@I@@H@Z @ 86 NONAME ; void CLmkParser::StartImportingL(class RArray<unsigned int> const &, int)
	?StartImportingL@CLmkParser@@QAEXH@Z @ 87 NONAME ; void CLmkParser::StartImportingL(int)
	?StartOperation@CLmkAOOperation@@QAEXXZ @ 88 NONAME ; void CLmkAOOperation::StartOperation(void)
	?StartParsingL@CLmkParser@@QAEXXZ @ 89 NONAME ; void CLmkParser::StartParsingL(void)
	?GetAllItemIdsL@CLmkLmItemListProvider@@QBEXAAV?$RArray@K@@@Z @ 90 NONAME ; void CLmkLmItemListProvider::GetAllItemIdsL(class RArray<unsigned long> &) const
	?RemoveItem@CLmkLmItemListProvider@@QAEXK@Z @ 91 NONAME ; void CLmkLmItemListProvider::RemoveItem(unsigned long)
	?SetSelectedItemsCount@CLmkLmItemListProvider@@QAEXH@Z @ 92 NONAME ; void CLmkLmItemListProvider::SetSelectedItemsCount(int)
	?StopOperation@CLmkAOOperation@@QAEXXZ @ 93 NONAME ; void CLmkAOOperation::StopOperation(void)
	?SetOperationCmd@CLmkLmItemListProvider@@QAEXW4TLmkAppCmdId@@@Z @ 94 NONAME ; void CLmkLmItemListProvider::SetOperationCmd(enum TLmkAppCmdId)
	?RemoveItemsL@CLmkLmItemListProvider@@QAEXABV?$RArray@K@@W4TOperationTypes@MLmkAOOperationObserver@@K@Z @ 95 NONAME ; void CLmkLmItemListProvider::RemoveItemsL(class RArray<unsigned long> const &, enum MLmkAOOperationObserver::TOperationTypes, unsigned long)

