EXPORTS
	?SetShowSnooze@CEvtInfoNoteInputParam@@QAEXH@Z @ 1 NONAME ; void CEvtInfoNoteInputParam::SetShowSnooze(int)
	?SetToneEnabled@CEvtInfoNoteInputParam@@QAEXH@Z @ 2 NONAME ; void CEvtInfoNoteInputParam::SetToneEnabled(int)
	?Subject@CEvtInfoNoteInputParam@@QBE?AVTPtrC16@@XZ @ 3 NONAME ; class TPtrC16 CEvtInfoNoteInputParam::Subject(void) const
	?MaintainState@CEvtKeyLockHandler@@QAEXXZ @ 4 NONAME ; void CEvtKeyLockHandler::MaintainState(void)
	?ToneEnabled@CEvtInfoNoteInputParam@@QBEHXZ @ 5 NONAME ; int CEvtInfoNoteInputParam::ToneEnabled(void) const
	?SetDescriptionL@CEvtInfoNoteInputParam@@QAEXABVTDesC16@@@Z @ 6 NONAME ; void CEvtInfoNoteInputParam::SetDescriptionL(class TDesC16 const &)
	?TrigerringAccuracy@CEvtInfoNoteInputParam@@QBE?AW4TEvtTriggerAccuracy@1@XZ @ 7 NONAME ; enum CEvtInfoNoteInputParam::TEvtTriggerAccuracy CEvtInfoNoteInputParam::TrigerringAccuracy(void) const
	?NewL@CEvtKeyLockHandler@@SAPAV1@XZ @ 8 NONAME ; class CEvtKeyLockHandler * CEvtKeyLockHandler::NewL(void)
	?UpdateStateWithoutNote@CEvtKeyLockHandler@@QAEXXZ @ 9 NONAME ; void CEvtKeyLockHandler::UpdateStateWithoutNote(void)
	?ToneRepeat@CEvtInfoNoteInputParam@@QBEHXZ @ 10 NONAME ; int CEvtInfoNoteInputParam::ToneRepeat(void) const
	?PlayFileL@CEvtTonePlayer@@QAEXABV?$TBuf@$0BAA@@@HH@Z @ 11 NONAME ; void CEvtTonePlayer::PlayFileL(class TBuf<256> const &, int, int)
	??1CEvtKeyLockHandler@@UAE@XZ @ 12 NONAME ; CEvtKeyLockHandler::~CEvtKeyLockHandler(void)
	?CreateDir@@YAXXZ @ 13 NONAME ; void CreateDir(void)
	?UpdateStateWithNote@CEvtKeyLockHandler@@QAEXXZ @ 14 NONAME ; void CEvtKeyLockHandler::UpdateStateWithNote(void)
	?SetToneRepeat@CEvtInfoNoteInputParam@@QAEXH@Z @ 15 NONAME ; void CEvtInfoNoteInputParam::SetToneRepeat(int)
	?NewLC@CEvtTonePlayer@@SAPAV1@AAVMEvtTonePlayObserver@@@Z @ 16 NONAME ; class CEvtTonePlayer * CEvtTonePlayer::NewLC(class MEvtTonePlayObserver &)
	?ShowSnooze@CEvtInfoNoteInputParam@@QBEHXZ @ 17 NONAME ; int CEvtInfoNoteInputParam::ShowSnooze(void) const
	?EnableKeyLock@CEvtKeyLockHandler@@QAEXH@Z @ 18 NONAME ; void CEvtKeyLockHandler::EnableKeyLock(int)
	?Debug@@YAXV?$TRefByValue@$$CBVTDesC16@@@@ZZ @ 19 NONAME ; void Debug(class TRefByValue<class TDesC16 const >, ...)
	?Description@CEvtInfoNoteInputParam@@QBE?AVTPtrC16@@XZ @ 20 NONAME ; class TPtrC16 CEvtInfoNoteInputParam::Description(void) const
	?StopPlayingL@CEvtTonePlayer@@QAEXH@Z @ 21 NONAME ; void CEvtTonePlayer::StopPlayingL(int)
	?SetTrigerringAccuracy@CEvtInfoNoteInputParam@@QAEXW4TEvtTriggerAccuracy@1@@Z @ 22 NONAME ; void CEvtInfoNoteInputParam::SetTrigerringAccuracy(enum CEvtInfoNoteInputParam::TEvtTriggerAccuracy)
	?ExternalizeL@CEvtInfoNoteInputParam@@QAEXAAVRWriteStream@@@Z @ 23 NONAME ; void CEvtInfoNoteInputParam::ExternalizeL(class RWriteStream &)
	?NewL@CEvtInfoNoteInputParam@@SAPAV1@XZ @ 24 NONAME ; class CEvtInfoNoteInputParam * CEvtInfoNoteInputParam::NewL(void)
	??1CEvtTonePlayer@@UAE@XZ @ 25 NONAME ; CEvtTonePlayer::~CEvtTonePlayer(void)
	?Tone@CEvtInfoNoteInputParam@@QBE?AVTPtrC16@@XZ @ 26 NONAME ; class TPtrC16 CEvtInfoNoteInputParam::Tone(void) const
	?SetToneL@CEvtInfoNoteInputParam@@QAEXABVTDesC16@@@Z @ 27 NONAME ; void CEvtInfoNoteInputParam::SetToneL(class TDesC16 const &)
	?InternalizeL@CEvtInfoNoteInputParam@@QAEXAAVRReadStream@@@Z @ 28 NONAME ; void CEvtInfoNoteInputParam::InternalizeL(class RReadStream &)
	?SetSubjectL@CEvtInfoNoteInputParam@@QAEXABVTDesC16@@@Z @ 29 NONAME ; void CEvtInfoNoteInputParam::SetSubjectL(class TDesC16 const &)
	?NewL@CEvtTonePlayer@@SAPAV1@AAVMEvtTonePlayObserver@@@Z @ 30 NONAME ; class CEvtTonePlayer * CEvtTonePlayer::NewL(class MEvtTonePlayObserver &)
	?NewLC@CEvtKeyLockHandler@@SAPAV1@XZ @ 31 NONAME ; class CEvtKeyLockHandler * CEvtKeyLockHandler::NewLC(void)

