EXPORTS
	??0TLcLocationAppFilter@@QAE@XZ @ 1 NONAME ; TLcLocationAppFilter::TLcLocationAppFilter(void)
	??1CLcLocationAppInfo@@UAE@XZ @ 2 NONAME ; CLcLocationAppInfo::~CLcLocationAppInfo(void)
	??1CLcLocationAppInfoArray@@UAE@XZ @ 3 NONAME ; CLcLocationAppInfoArray::~CLcLocationAppInfoArray(void)
	??ACLcLocationAppInfoArray@@QBEAAVCLcLocationAppInfo@@H@Z @ 4 NONAME ; class CLcLocationAppInfo & CLcLocationAppInfoArray::operator[](int) const
	?AppCharFilterConfiguration@TLcLocationAppFilter@@QBE?AW4TLcFilterConfig@1@XZ @ 5 NONAME ; enum TLcLocationAppFilter::TLcFilterConfig TLcLocationAppFilter::AppCharFilterConfiguration(void) const
	?AppendL@CLcLocationAppInfoArray@@QAEXPAVCLcLocationAppInfo@@@Z @ 6 NONAME ; void CLcLocationAppInfoArray::AppendL(class CLcLocationAppInfo *)
	?ApplicationCharacteristics@CLcLocationAppInfo@@QBEKXZ @ 7 NONAME ; unsigned long CLcLocationAppInfo::ApplicationCharacteristics(void) const
	?ApplicationCharacteristics@TLcLocationAppFilter@@QBEKXZ @ 8 NONAME ; unsigned long TLcLocationAppFilter::ApplicationCharacteristics(void) const
	?CancelGetLocationApplications@CLcService@@QAEXXZ @ 9 NONAME ; void CLcService::CancelGetLocationApplications(void)
	?Count@CLcLocationAppInfoArray@@QBEHXZ @ 10 NONAME ; int CLcLocationAppInfoArray::Count(void) const
	?GetLocationApplications@CLcService@@QAEXAAVTRequestStatus@@AAPAVCLcLocationAppInfoArray@@@Z @ 11 NONAME ; void CLcService::GetLocationApplications(class TRequestStatus &, class CLcLocationAppInfoArray * &)
	?GetLocationApplications@CLcService@@QAEXAAVTRequestStatus@@ABVTLcLocationAppFilter@@AAPAVCLcLocationAppInfoArray@@@Z @ 12 NONAME ; void CLcService::GetLocationApplications(class TRequestStatus &, class TLcLocationAppFilter const &, class CLcLocationAppInfoArray * &)
	?GetLocationApplicationsL@CLcService@@QAEPAVCLcLocationAppInfoArray@@ABVTLcLocationAppFilter@@@Z @ 13 NONAME ; class CLcLocationAppInfoArray * CLcService::GetLocationApplicationsL(class TLcLocationAppFilter const &)
	?GetLocationApplicationsL@CLcService@@QAEPAVCLcLocationAppInfoArray@@XZ @ 14 NONAME ; class CLcLocationAppInfoArray * CLcService::GetLocationApplicationsL(void)
	?IconL@CLcLocationAppInfo@@QBEPAVCGulIcon@@XZ @ 15 NONAME ; class CGulIcon * CLcLocationAppInfo::IconL(void) const
	?Id@CLcLocationAppInfo@@QBE?AVTPtrC16@@XZ @ 16 NONAME ; class TPtrC16 CLcLocationAppInfo::Id(void) const
	?LaunchLocationApplicationL@CLcService@@QAEXABVTDesC16@@W4TLcLaunchMode@CLcLocationAppInfo@@PAVMLcAppExitObserver@@@Z @ 17 NONAME ; void CLcService::LaunchLocationApplicationL(class TDesC16 const &, enum CLcLocationAppInfo::TLcLaunchMode, class MLcAppExitObserver *)
	?LaunchLocationCentreL@CLcService@@QAEXABV?$RArray@VTPtrC16@@@@W4TLcLaunchMode@CLcLocationAppInfo@@PAVMLcAppExitObserver@@@Z @ 18 NONAME ; void CLcService::LaunchLocationCentreL(class RArray<class TPtrC16> const &, enum CLcLocationAppInfo::TLcLaunchMode, class MLcAppExitObserver *)
	?LaunchLocationCentreL@CLcService@@QAEXABV?$RPointerArray@VCLcLaunchParam@CLcService@@@@PAVMLcAppExitObserver@@@Z @ 19 NONAME ; void CLcService::LaunchLocationCentreL(class RPointerArray<class CLcService::CLcLaunchParam> const &, class MLcAppExitObserver *)
	?LaunchLocationCentreL@CLcService@@QAEXABVTLcLocationAppFilter@@W4TLcLaunchMode@CLcLocationAppInfo@@PAVMLcAppExitObserver@@@Z @ 20 NONAME ; void CLcService::LaunchLocationCentreL(class TLcLocationAppFilter const &, enum CLcLocationAppInfo::TLcLaunchMode, class MLcAppExitObserver *)
	?LaunchLocationCentreL@CLcService@@QAEXW4TLcLaunchMode@CLcLocationAppInfo@@PAVMLcAppExitObserver@@@Z @ 21 NONAME ; void CLcService::LaunchLocationCentreL(enum CLcLocationAppInfo::TLcLaunchMode, class MLcAppExitObserver *)
	?LaunchMode@CLcLocationAppInfo@@QBE?AW4TLcLaunchMode@1@XZ @ 22 NONAME ; enum CLcLocationAppInfo::TLcLaunchMode CLcLocationAppInfo::LaunchMode(void) const
	?Name@CLcLocationAppInfo@@QBE?AVTPtrC16@@XZ @ 23 NONAME ; class TPtrC16 CLcLocationAppInfo::Name(void) const
	?NewL@CLcLaunchParam@CLcService@@SAPAV12@ABVTDesC16@@W4TLcLaunchMode@CLcLocationAppInfo@@@Z @ 24 NONAME ; class CLcService::CLcLaunchParam * CLcService::CLcLaunchParam::NewL(class TDesC16 const &, enum CLcLocationAppInfo::TLcLaunchMode)
	?NewL@CLcLocationAppInfo@@SAPAV1@ABV1@@Z @ 25 NONAME ; class CLcLocationAppInfo * CLcLocationAppInfo::NewL(class CLcLocationAppInfo const &)
	?NewL@CLcLocationAppInfo@@SAPAV1@XZ @ 26 NONAME ; class CLcLocationAppInfo * CLcLocationAppInfo::NewL(void)
	?NewL@CLcLocationAppInfoArray@@SAPAV1@XZ @ 27 NONAME ; class CLcLocationAppInfoArray * CLcLocationAppInfoArray::NewL(void)
	?NewL@CLcService@@SAPAV1@XZ @ 28 NONAME ; class CLcService * CLcService::NewL(void)
	?NewLC@CLcLaunchParam@CLcService@@SAPAV12@ABVTDesC16@@W4TLcLaunchMode@CLcLocationAppInfo@@@Z @ 29 NONAME ; class CLcService::CLcLaunchParam * CLcService::CLcLaunchParam::NewLC(class TDesC16 const &, enum CLcLocationAppInfo::TLcLaunchMode)
	?NewLC@CLcLocationAppInfo@@SAPAV1@ABV1@@Z @ 30 NONAME ; class CLcLocationAppInfo * CLcLocationAppInfo::NewLC(class CLcLocationAppInfo const &)
	?NewLC@CLcLocationAppInfo@@SAPAV1@XZ @ 31 NONAME ; class CLcLocationAppInfo * CLcLocationAppInfo::NewLC(void)
	?NewLC@CLcLocationAppInfoArray@@SAPAV1@XZ @ 32 NONAME ; class CLcLocationAppInfoArray * CLcLocationAppInfoArray::NewLC(void)
	?NewLC@CLcService@@SAPAV1@XZ @ 33 NONAME ; class CLcService * CLcService::NewLC(void)
	?Remove@CLcLocationAppInfoArray@@QAEPAVCLcLocationAppInfo@@H@Z @ 34 NONAME ; class CLcLocationAppInfo * CLcLocationAppInfoArray::Remove(int)
	?RemoveObserver@CLcService@@QAEHXZ @ 35 NONAME ; int CLcService::RemoveObserver(void)
	?SelectLocationApplicationL@CLcService@@QAE?AVTPtrC16@@ABV?$RArray@VTPtrC16@@@@H@Z @ 36 NONAME ; class TPtrC16 CLcService::SelectLocationApplicationL(class RArray<class TPtrC16> const &, int)
	?SelectLocationApplicationL@CLcService@@QAE?AVTPtrC16@@ABVTLcLocationAppFilter@@@Z @ 37 NONAME ; class TPtrC16 CLcService::SelectLocationApplicationL(class TLcLocationAppFilter const &)
	?SelectLocationApplicationL@CLcService@@QAE?AVTPtrC16@@XZ @ 38 NONAME ; class TPtrC16 CLcService::SelectLocationApplicationL(void)
	?SetAppCharFilterConfiguration@TLcLocationAppFilter@@QAEXW4TLcFilterConfig@1@@Z @ 39 NONAME ; void TLcLocationAppFilter::SetAppCharFilterConfiguration(enum TLcLocationAppFilter::TLcFilterConfig)
	?SetApplicationCharacteristics@TLcLocationAppFilter@@QAEHK@Z @ 40 NONAME ; int TLcLocationAppFilter::SetApplicationCharacteristics(unsigned long)
	?SetObserverL@CLcService@@QAEXAAVMLcNotification@@@Z @ 41 NONAME ; void CLcService::SetObserverL(class MLcNotification &)
	?SetSysCharFilterConfiguration@TLcLocationAppFilter@@QAEXW4TLcFilterConfig@1@@Z @ 42 NONAME ; void TLcLocationAppFilter::SetSysCharFilterConfiguration(enum TLcLocationAppFilter::TLcFilterConfig)
	?SetSystemCharacteristic@TLcLocationAppFilter@@QAEHK@Z @ 43 NONAME ; int TLcLocationAppFilter::SetSystemCharacteristic(unsigned long)
	?SysCharFilterConfiguration@TLcLocationAppFilter@@QBE?AW4TLcFilterConfig@1@XZ @ 44 NONAME ; enum TLcLocationAppFilter::TLcFilterConfig TLcLocationAppFilter::SysCharFilterConfiguration(void) const
	?SystemCharacteristics@CLcLocationAppInfo@@QBEKXZ @ 45 NONAME ; unsigned long CLcLocationAppInfo::SystemCharacteristics(void) const
	?SystemCharacteristics@TLcLocationAppFilter@@QBEKXZ @ 46 NONAME ; unsigned long TLcLocationAppFilter::SystemCharacteristics(void) const
	?Reset@CLcLocationAppInfoArray@@QAEXXZ @ 47 NONAME ; void CLcLocationAppInfoArray::Reset(void)

