EXPORTS
	??0TLmkEditorParams@CLmkEditorDlg@@QAE@XZ @ 1 NONAME ; CLmkEditorDlg::TLmkEditorParams::TLmkEditorParams(void)
	??0TLmkItemIdDbCombiInfo@@QAE@XZ @ 2 NONAME ; TLmkItemIdDbCombiInfo::TLmkItemIdDbCombiInfo(void)
	??1CLmkCategorySelectorDlg@@UAE@XZ @ 3 NONAME ; CLmkCategorySelectorDlg::~CLmkCategorySelectorDlg(void)
	??1CLmkEditorDlg@@UAE@XZ @ 4 NONAME ; CLmkEditorDlg::~CLmkEditorDlg(void)
	??1CLmkLandmarkSelectorDlg@@UAE@XZ @ 5 NONAME ; CLmkLandmarkSelectorDlg::~CLmkLandmarkSelectorDlg(void)
	??1TLmkItemIdDbCombiInfo@@QAE@XZ @ 6 NONAME ; TLmkItemIdDbCombiInfo::~TLmkItemIdDbCombiInfo(void)
	?ExecuteLD@CLmkCategorySelectorDlg@@QAEHAAV?$RArray@VTLmkItemIdDbCombiInfo@@@@@Z @ 7 NONAME ; int CLmkCategorySelectorDlg::ExecuteLD(class RArray<class TLmkItemIdDbCombiInfo> &)
	?ExecuteLD@CLmkCategorySelectorDlg@@QAEHAAVTLmkItemIdDbCombiInfo@@@Z @ 8 NONAME ; int CLmkCategorySelectorDlg::ExecuteLD(class TLmkItemIdDbCombiInfo &)
	?ExecuteLD@CLmkEditorDlg@@QAEHXZ @ 9 NONAME ; int CLmkEditorDlg::ExecuteLD(void)
	?ExecuteLD@CLmkLandmarkSelectorDlg@@QAEHAAV?$RArray@VTLmkItemIdDbCombiInfo@@@@@Z @ 10 NONAME ; int CLmkLandmarkSelectorDlg::ExecuteLD(class RArray<class TLmkItemIdDbCombiInfo> &)
	?ExecuteLD@CLmkLandmarkSelectorDlg@@QAEHAAVTLmkItemIdDbCombiInfo@@@Z @ 11 NONAME ; int CLmkLandmarkSelectorDlg::ExecuteLD(class TLmkItemIdDbCombiInfo &)
	?GetItemId@TLmkItemIdDbCombiInfo@@QBEKXZ @ 12 NONAME ; unsigned long TLmkItemIdDbCombiInfo::GetItemId(void) const
	?GetLmDb@TLmkItemIdDbCombiInfo@@QBEPAVCPosLandmarkDatabase@@XZ @ 13 NONAME ; class CPosLandmarkDatabase * TLmkItemIdDbCombiInfo::GetLmDb(void) const
	?NewL@CLmkCategorySelectorDlg@@SAPAV1@H@Z @ 14 NONAME ; class CLmkCategorySelectorDlg * CLmkCategorySelectorDlg::NewL(int)
	?NewL@CLmkEditorDlg@@SAPAV1@AAVCPosLandmarkDatabase@@AAVCPosLandmark@@AAVTLmkEditorParams@1@@Z @ 15 NONAME ; class CLmkEditorDlg * CLmkEditorDlg::NewL(class CPosLandmarkDatabase &, class CPosLandmark &, class CLmkEditorDlg::TLmkEditorParams &)
	?NewL@CLmkEditorDlg@@SAPAV1@AAVCPosLandmarkDatabase@@KAAVTLmkEditorParams@1@@Z @ 16 NONAME ; class CLmkEditorDlg * CLmkEditorDlg::NewL(class CPosLandmarkDatabase &, unsigned long, class CLmkEditorDlg::TLmkEditorParams &)
	?NewL@CLmkLandmarkSelectorDlg@@SAPAV1@XZ @ 17 NONAME ; class CLmkLandmarkSelectorDlg * CLmkLandmarkSelectorDlg::NewL(void)
	?SetHelpContext@CLmkEditorDlg@@QAEXVTCoeHelpContext@@@Z @ 18 NONAME ; void CLmkEditorDlg::SetHelpContext(class TCoeHelpContext)
	?SetItemId@TLmkItemIdDbCombiInfo@@QAEXAAK@Z @ 19 NONAME ; void TLmkItemIdDbCombiInfo::SetItemId(unsigned long &)
	?SetLmDb@TLmkItemIdDbCombiInfo@@QAEXPAVCPosLandmarkDatabase@@@Z @ 20 NONAME ; void TLmkItemIdDbCombiInfo::SetLmDb(class CPosLandmarkDatabase *)
	?SetMopParent@CLmkCategorySelectorDlg@@QAEXPAVMObjectProvider@@@Z @ 21 NONAME ; void CLmkCategorySelectorDlg::SetMopParent(class MObjectProvider *)
	?SetMopParent@CLmkEditorDlg@@QAEXPAVMObjectProvider@@@Z @ 22 NONAME ; void CLmkEditorDlg::SetMopParent(class MObjectProvider *)
	?SetMopParent@CLmkLandmarkSelectorDlg@@QAEXPAVMObjectProvider@@@Z @ 23 NONAME ; void CLmkLandmarkSelectorDlg::SetMopParent(class MObjectProvider *)
	?DisableMapAndNavigationMenuOptions@CLmkEditorDlg@@QAEXXZ @ 24 NONAME ; void CLmkEditorDlg::DisableMapAndNavigationMenuOptions(void)

