EXPORTS
	??0TLmkEditorParams@CLmkEditorDlg@@QAE@XZ @ 1 NONAME ; CLmkEditorDlg::TLmkEditorParams::TLmkEditorParams(void)
	??1CLmkCategorySelectorDlg@@UAE@XZ @ 2 NONAME ; CLmkCategorySelectorDlg::~CLmkCategorySelectorDlg(void)
	??1CLmkEditorDlg@@UAE@XZ @ 3 NONAME ; CLmkEditorDlg::~CLmkEditorDlg(void)
	??1CLmkItemIdDbCombiInfo@@QAE@XZ @ 4 NONAME ABSENT ; CLmkItemIdDbCombiInfo::~CLmkItemIdDbCombiInfo(void)
	??1CLmkLandmarkSelectorDlg@@UAE@XZ @ 5 NONAME ; CLmkLandmarkSelectorDlg::~CLmkLandmarkSelectorDlg(void)
	?ExecuteLD@CLmkCategorySelectorDlg@@QAEHAAV?$RArray@VCLmkItemIdDbCombiInfo@@@@@Z @ 6 NONAME ABSENT ; int CLmkCategorySelectorDlg::ExecuteLD(class RArray<class CLmkItemIdDbCombiInfo> &)
	?ExecuteLD@CLmkCategorySelectorDlg@@QAEHAAVCLmkItemIdDbCombiInfo@@@Z @ 7 NONAME ABSENT ; int CLmkCategorySelectorDlg::ExecuteLD(class CLmkItemIdDbCombiInfo &)
	?ExecuteLD@CLmkEditorDlg@@QAEHXZ @ 8 NONAME ; int CLmkEditorDlg::ExecuteLD(void)
	?ExecuteLD@CLmkLandmarkSelectorDlg@@QAEHAAV?$RArray@VCLmkItemIdDbCombiInfo@@@@@Z @ 9 NONAME ABSENT ; int CLmkLandmarkSelectorDlg::ExecuteLD(class RArray<class CLmkItemIdDbCombiInfo> &)
	?ExecuteLD@CLmkLandmarkSelectorDlg@@QAEHAAVCLmkItemIdDbCombiInfo@@@Z @ 10 NONAME ABSENT ; int CLmkLandmarkSelectorDlg::ExecuteLD(class CLmkItemIdDbCombiInfo &)
	?NewL@CLmkCategorySelectorDlg@@SAPAV1@AAV?$RPointerArray@VCPosLandmarkDatabase@@@@H@Z @ 11 NONAME ABSENT ; class CLmkCategorySelectorDlg * CLmkCategorySelectorDlg::NewL(class RPointerArray<class CPosLandmarkDatabase> &, int)
	?NewL@CLmkEditorDlg@@SAPAV1@AAVCPosLandmarkDatabase@@AAVCPosLandmark@@AAVTLmkEditorParams@1@@Z @ 12 NONAME ; class CLmkEditorDlg * CLmkEditorDlg::NewL(class CPosLandmarkDatabase &, class CPosLandmark &, class CLmkEditorDlg::TLmkEditorParams &)
	?NewL@CLmkEditorDlg@@SAPAV1@AAVCPosLandmarkDatabase@@KAAVTLmkEditorParams@1@@Z @ 13 NONAME ; class CLmkEditorDlg * CLmkEditorDlg::NewL(class CPosLandmarkDatabase &, unsigned long, class CLmkEditorDlg::TLmkEditorParams &)
	?NewL@CLmkLandmarkSelectorDlg@@SAPAV1@AAV?$RPointerArray@VCPosLandmarkDatabase@@@@@Z @ 14 NONAME ABSENT ; class CLmkLandmarkSelectorDlg * CLmkLandmarkSelectorDlg::NewL(class RPointerArray<class CPosLandmarkDatabase> &)
	?SetHelpContext@CLmkEditorDlg@@QAEXVTCoeHelpContext@@@Z @ 15 NONAME ; void CLmkEditorDlg::SetHelpContext(class TCoeHelpContext)
	?SetMopParent@CLmkCategorySelectorDlg@@QAEXPAVMObjectProvider@@@Z @ 16 NONAME ; void CLmkCategorySelectorDlg::SetMopParent(class MObjectProvider *)
	?SetMopParent@CLmkEditorDlg@@QAEXPAVMObjectProvider@@@Z @ 17 NONAME ; void CLmkEditorDlg::SetMopParent(class MObjectProvider *)
	?SetMopParent@CLmkLandmarkSelectorDlg@@QAEXPAVMObjectProvider@@@Z @ 18 NONAME ; void CLmkLandmarkSelectorDlg::SetMopParent(class MObjectProvider *)
	??0CLmkItemIdDbCombiInfo@@QAE@XZ @ 19 NONAME ABSENT ; CLmkItemIdDbCombiInfo::CLmkItemIdDbCombiInfo(void)
	?GetItemId@CLmkItemIdDbCombiInfo@@QBEKXZ @ 20 NONAME ABSENT ; unsigned long CLmkItemIdDbCombiInfo::GetItemId(void) const
	?GetLmDb@CLmkItemIdDbCombiInfo@@QBEPAVCPosLandmarkDatabase@@XZ @ 21 NONAME ABSENT ; class CPosLandmarkDatabase * CLmkItemIdDbCombiInfo::GetLmDb(void) const
	?SetItemId@CLmkItemIdDbCombiInfo@@QAEXAAK@Z @ 22 NONAME ABSENT ; void CLmkItemIdDbCombiInfo::SetItemId(unsigned long &)
	?SetLmDb@CLmkItemIdDbCombiInfo@@QAEXPAVCPosLandmarkDatabase@@@Z @ 23 NONAME ABSENT ; void CLmkItemIdDbCombiInfo::SetLmDb(class CPosLandmarkDatabase *)
	??0TLmkItemIdDbCombiInfo@@QAE@XZ @ 24 NONAME ; TLmkItemIdDbCombiInfo::TLmkItemIdDbCombiInfo(void)
	??1TLmkItemIdDbCombiInfo@@QAE@XZ @ 25 NONAME ; TLmkItemIdDbCombiInfo::~TLmkItemIdDbCombiInfo(void)
	?ExecuteLD@CLmkCategorySelectorDlg@@QAEHAAV?$RArray@VTLmkItemIdDbCombiInfo@@@@@Z @ 26 NONAME ; int CLmkCategorySelectorDlg::ExecuteLD(class RArray<class TLmkItemIdDbCombiInfo> &)
	?ExecuteLD@CLmkCategorySelectorDlg@@QAEHAAVTLmkItemIdDbCombiInfo@@@Z @ 27 NONAME ; int CLmkCategorySelectorDlg::ExecuteLD(class TLmkItemIdDbCombiInfo &)
	?ExecuteLD@CLmkLandmarkSelectorDlg@@QAEHAAV?$RArray@VTLmkItemIdDbCombiInfo@@@@@Z @ 28 NONAME ; int CLmkLandmarkSelectorDlg::ExecuteLD(class RArray<class TLmkItemIdDbCombiInfo> &)
	?ExecuteLD@CLmkLandmarkSelectorDlg@@QAEHAAVTLmkItemIdDbCombiInfo@@@Z @ 29 NONAME ; int CLmkLandmarkSelectorDlg::ExecuteLD(class TLmkItemIdDbCombiInfo &)
	?GetItemId@TLmkItemIdDbCombiInfo@@QBEKXZ @ 30 NONAME ; unsigned long TLmkItemIdDbCombiInfo::GetItemId(void) const
	?GetLmDb@TLmkItemIdDbCombiInfo@@QBEPAVCPosLandmarkDatabase@@XZ @ 31 NONAME ; class CPosLandmarkDatabase * TLmkItemIdDbCombiInfo::GetLmDb(void) const
	?NewL@CLmkCategorySelectorDlg@@SAPAV1@H@Z @ 32 NONAME ; class CLmkCategorySelectorDlg * CLmkCategorySelectorDlg::NewL(int)
	?NewL@CLmkLandmarkSelectorDlg@@SAPAV1@XZ @ 33 NONAME ; class CLmkLandmarkSelectorDlg * CLmkLandmarkSelectorDlg::NewL(void)
	?SetItemId@TLmkItemIdDbCombiInfo@@QAEXAAK@Z @ 34 NONAME ; void TLmkItemIdDbCombiInfo::SetItemId(unsigned long &)
	?SetLmDb@TLmkItemIdDbCombiInfo@@QAEXPAVCPosLandmarkDatabase@@@Z @ 35 NONAME ; void TLmkItemIdDbCombiInfo::SetLmDb(class CPosLandmarkDatabase *)
	?DisableMapAndNavigationMenuOptions@CLmkEditorDlg@@QAEXXZ @ 36 NONAME ; void CLmkEditorDlg::DisableMapAndNavigationMenuOptions(void)
	?SetDialogTitleL@CLmkLandmarkSelectorDlg@@QAEXABVTDesC16@@@Z @ 37 NONAME ; void CLmkLandmarkSelectorDlg::SetDialogTitleL(class TDesC16 const &)
	?NewL@CLmkLandmarkSelectorDlg@@SAPAV1@ABVTDesC16@@@Z @ 38 NONAME ; class CLmkLandmarkSelectorDlg * CLmkLandmarkSelectorDlg::NewL(class TDesC16 const &)

