EXPORTS
	_ZN10CLmkFields11SaveFieldsLEv @ 1 NONAME
	_ZN10CLmkFields15CheckDiscSpaceLEv @ 2 NONAME
	_ZN10CLmkFields15DeleteLandmarkLEv @ 3 NONAME
	_ZN10CLmkFields4NewLER13RPointerArrayI7HBufC16ER20CPosLandmarkDatabasemmP12CPosLandmarki @ 4 NONAME
	_ZN10CLmkFields6FieldsEv @ 5 NONAME
	_ZN10CLmkFields8GetFieldEt @ 6 NONAME
	_ZN10CLmkFieldsD0Ev @ 7 NONAME
	_ZN10CLmkFieldsD1Ev @ 8 NONAME
	_ZN10CLmkFieldsD2Ev @ 9 NONAME
	_ZN10CLmkParser10FileHandleEv @ 10 NONAME
	_ZN10CLmkParser10LandmarkLCEi @ 11 NONAME
	_ZN10CLmkParser11PackageNameEv @ 12 NONAME
	_ZN10CLmkParser12IsFileHandleEv @ 13 NONAME
	_ZN10CLmkParser13InitializeDbLEv @ 14 NONAME
	_ZN10CLmkParser13LmkLandmarkLCEi @ 15 NONAME
	_ZN10CLmkParser13StartParsingLEv @ 16 NONAME
	_ZN10CLmkParser14CategoryNameLCEi @ 17 NONAME
	_ZN10CLmkParser14ChangeObserverER23MLmkAOOperationObserver @ 18 NONAME
	_ZN10CLmkParser15CancelImportingEv @ 19 NONAME
	_ZN10CLmkParser15StartImportingLERK6RArrayIjEi @ 20 NONAME
	_ZN10CLmkParser15StartImportingLEi @ 21 NONAME
	_ZN10CLmkParser20NumOfParsedLandmarksEv @ 22 NONAME
	_ZN10CLmkParser4NewLER5RFileR20CPosLandmarkDatabaseR23MLmkAOOperationObserveri @ 23 NONAME
	_ZN10CLmkParser4NewLERK7TDesC16R20CPosLandmarkDatabaseR23MLmkAOOperationObserveri @ 24 NONAME
	_ZN10CLmkParser8FileNameEv @ 25 NONAME
	_ZN11CLmkDbUtils10CompactDbLEv @ 26 NONAME
	_ZN11CLmkDbUtils11CategoryIdLER20CPosLandmarkDatabaseRK7TDesC16 @ 27 NONAME
	_ZN11CLmkDbUtils11ChangeIconLER20CPosLandmarkDatabasem12TLmkItemTypeRK7TDesC16ii @ 28 NONAME
	_ZN11CLmkDbUtils12AddCategoryLER20CPosLandmarkCategoryR20CPosLandmarkDatabase @ 29 NONAME
	_ZN11CLmkDbUtils12ChangeIconsLERK6RArrayImE12TLmkItemTypeRK7TDesC16ii @ 30 NONAME
	_ZN11CLmkDbUtils13CategoryNameLER20CPosLandmarkDatabasem @ 31 NONAME
	_ZN11CLmkDbUtils13InitializeDbLEv @ 32 NONAME
	_ZN11CLmkDbUtils15DeleteLandmarkLEmR20CPosLandmarkDatabase @ 33 NONAME
	_ZN11CLmkDbUtils15RenameCategoryLER7TDesC16mR20CPosLandmarkDatabase @ 34 NONAME
	_ZN11CLmkDbUtils16AddLmToCategoryLEmmR20CPosLandmarkDatabase @ 35 NONAME
	_ZN11CLmkDbUtils16DeleteLandmarksLERK6RArrayImE @ 36 NONAME
	_ZN11CLmkDbUtils17CancelLmOperationEv @ 37 NONAME
	_ZN11CLmkDbUtils17DeleteCategoriesLERK6RArrayImE @ 38 NONAME
	_ZN11CLmkDbUtils18AddLmToCategoriesLEmRK6RArrayImE @ 39 NONAME
	_ZN11CLmkDbUtils19AddDefaultProtocolLEP12CPosLandmark @ 40 NONAME
	_ZN11CLmkDbUtils19AddLmsToCategoriesLERK6RArrayImES3_ @ 41 NONAME
	_ZN11CLmkDbUtils22RemoveDefaultProtocolLER6TPtr16 @ 42 NONAME
	_ZN11CLmkDbUtils23IsLmWithThisFieldExistLEt @ 43 NONAME
	_ZN11CLmkDbUtils4NewLER20CPosLandmarkDatabaseR23MLmkAOOperationObserveri @ 44 NONAME
	_ZN11CLmkEncoder14StartEncodingLERK7TDesC16RK13RPointerArrayI12CLmkLandmarkE @ 45 NONAME
	_ZN11CLmkEncoder14StartEncodingLERK7TDesC16RK6RArrayImE @ 46 NONAME
	_ZN11CLmkEncoder22CancelEncodeOperationLEv @ 47 NONAME
	_ZN11CLmkEncoder4NewLER20CPosLandmarkDatabaseR23MLmkAOOperationObserveri @ 48 NONAME
	_ZN12CLmkLandmark10CategoriesEv @ 49 NONAME
	_ZN12CLmkLandmark11PosLandmarkEv @ 50 NONAME
	_ZN12CLmkLandmark4NewLEPK12CPosLandmarkRK13RPointerArrayI20CPosLandmarkCategoryE @ 51 NONAME
	_ZN12CLmkLandmark4NewLERKS_ @ 52 NONAME
	_ZN12LmkFileUtils11DeleteFileLERK7TDesC16 @ 53 NONAME
	_ZN14CLmkUiItemBase12ExtensionIntEv @ 54 NONAME
	_ZN14CLmkUiItemBase15SetExtensionIntEi @ 55 NONAME
	_ZN14CLmkUiItemBase18ExtensionIntExistsEv @ 56 NONAME
	_ZN15CLmkAOOperation14StartOperationEv @ 57 NONAME
	_ZN15CLmkAOOperation4NewLEP15CPosLmOperationR23MLmkAOOperationObserverNS2_15TOperationTypesEi @ 58 NONAME
	_ZN15CLmkAOOperationC1EP15CPosLmOperationR23MLmkAOOperationObserverNS2_15TOperationTypesEi @ 59 NONAME
	_ZN15CLmkAOOperationC2EP15CPosLmOperationR23MLmkAOOperationObserverNS2_15TOperationTypesEi @ 60 NONAME
	_ZN15CLmkAOOperationD0Ev @ 61 NONAME
	_ZN15CLmkAOOperationD1Ev @ 62 NONAME
	_ZN15CLmkAOOperationD2Ev @ 63 NONAME
	_ZN17CLmkDbSearchUtils13GetLandmarksLEP25MLmkDbSearchUtilsObserver6RArrayImEP13RPointerArrayI12CPosLandmarkE @ 64 NONAME
	_ZN17CLmkDbSearchUtils16GetCategoryNameLEm @ 65 NONAME
	_ZN17CLmkDbSearchUtils17GetLandmarkForIdLEm @ 66 NONAME
	_ZN17CLmkDbSearchUtils26GetLandmarksUnderCategoryLEP25MLmkDbSearchUtilsObserverm @ 67 NONAME
	_ZN17CLmkDbSearchUtils4NewLEv @ 68 NONAME
	_ZN17CLmkDbSearchUtilsD0Ev @ 69 NONAME
	_ZN17CLmkDbSearchUtilsD1Ev @ 70 NONAME
	_ZN17CLmkDbSearchUtilsD2Ev @ 71 NONAME
	_ZN19CLmkLocationService11SetObserverER20MLmkLocationObserver @ 72 NONAME
	_ZN19CLmkLocationService13CancelRequestEv @ 73 NONAME
	_ZN19CLmkLocationService15CurrentPositionEv @ 74 NONAME
	_ZN19CLmkLocationService16LocationRequestLEv @ 75 NONAME
	_ZN19CLmkLocationService19RemoveModelObserverEv @ 76 NONAME
	_ZN19CLmkLocationService4NewLERK7TDesC16 @ 77 NONAME
	_ZN20CLmkListProviderBase11SetIconMgrLER19MLmkSelectorIconMgr @ 78 NONAME
	_ZN20CLmkListProviderBase12AddObserverLER24MLmkListProviderObserver @ 79 NONAME
	_ZN20CLmkListProviderBase14RemoveObserverER24MLmkListProviderObserver @ 80 NONAME
	_ZN22LmkListProviderFactory15CreateProviderLER10CLmkParser @ 81 NONAME
	_ZN22LmkListProviderFactory15CreateProviderLER20CPosLandmarkDatabase16TLmkSelectorType16TLmkProviderType @ 82 NONAME
	_ZN22LmkListProviderFactory15CreateProviderLER20CPosLandmarkDatabaseR20CPosLmSearchCriteria @ 83 NONAME
	_ZN26CLmkLandMarkCategoriesName15AddCategoryNameERK7TDesC16 @ 84 NONAME
	_ZN26CLmkLandMarkCategoriesName16SetCategoryNamesER6RArrayI4TBufILi124EEE @ 85 NONAME
	_ZN26CLmkLandMarkCategoriesName4NewLERS_ @ 86 NONAME
	_ZN26CLmkLandMarkCategoriesName4NewLEv @ 87 NONAME
	_ZNK10CLmkFields10LandmarkIdEv @ 88 NONAME
	_ZNK22CLmkLmItemListProvider13SelectedIndexEm @ 89 NONAME
	_ZNK22CLmkLmItemListProvider16SelectedIndexesLERK6RArrayImE @ 90 NONAME
	_ZNK22CLmkLmItemListProvider17GetSelectedItemIdERmi @ 91 NONAME
	_ZNK22CLmkLmItemListProvider19GetSelectedIndexesLER9CArrayFixIiERK6RArrayImE @ 92 NONAME
	_ZNK22CLmkLmItemListProvider19GetSelectedItemIdsLER6RArrayImERK9CArrayFixIiE @ 93 NONAME
	_ZNK26CLmkLandMarkCategoriesName16GetCategoryNamesER6RArrayI4TBufILi124EEE @ 94 NONAME
	_ZTI10CLmkFields @ 95 NONAME ; #<TI>#
	_ZTI10CLmkParser @ 96 NONAME ; #<TI>#
	_ZTI11CLmkDbUtils @ 97 NONAME ; #<TI>#
	_ZTI11CLmkEncoder @ 98 NONAME ; #<TI>#
	_ZTI12CLmkLandmark @ 99 NONAME ; #<TI>#
	_ZTI13CLmkFieldData @ 100 NONAME ; #<TI>#
	_ZTI14CLmkUiItemBase @ 101 NONAME ; #<TI>#
	_ZTI15CLmkAOOperation @ 102 NONAME ; #<TI>#
	_ZTI17CLmkDbInitializer @ 103 NONAME ; #<TI>#
	_ZTI17CLmkDbSearchUtils @ 104 NONAME ; #<TI>#
	_ZTI17CLmkIconOperation @ 105 NONAME ; #<TI>#
	_ZTI18CLmkCategoryUiItem @ 106 NONAME ; #<TI>#
	_ZTI18CLmkLandmarkUiItem @ 107 NONAME ; #<TI>#
	_ZTI19CLmkDbEventListener @ 108 NONAME ; #<TI>#
	_ZTI19CLmkLocationService @ 109 NONAME ; #<TI>#
	_ZTI19CLmkParseAllWrapper @ 110 NONAME ; #<TI>#
	_ZTI20CLmkListProviderBase @ 111 NONAME ; #<TI>#
	_ZTI21CLmkAddToCatOperation @ 112 NONAME ; #<TI>#
	_ZTI22CLmkLmItemListProvider @ 113 NONAME ; #<TI>#
	_ZTI24CLmkCategoryListProvider @ 114 NONAME ; #<TI>#
	_ZTI24CLmkLandmarkListProvider @ 115 NONAME ; #<TI>#
	_ZTI24CLmkParsedLmListProvider @ 116 NONAME ; #<TI>#
	_ZTI26CLmkEventListenerSingleton @ 117 NONAME ; #<TI>#
	_ZTI26CLmkLandMarkCategoriesName @ 118 NONAME ; #<TI>#
	_ZTI26CLmkSearchedLmListProvider @ 119 NONAME ; #<TI>#
	_ZTI28CLmkEncodeUnsavedLandmarksOp @ 120 NONAME ; #<TI>#
	_ZTV10CLmkFields @ 121 NONAME ; #<VT>#
	_ZTV10CLmkParser @ 122 NONAME ; #<VT>#
	_ZTV11CLmkDbUtils @ 123 NONAME ; #<VT>#
	_ZTV11CLmkEncoder @ 124 NONAME ; #<VT>#
	_ZTV12CLmkLandmark @ 125 NONAME ; #<VT>#
	_ZTV13CLmkFieldData @ 126 NONAME ; #<VT>#
	_ZTV14CLmkUiItemBase @ 127 NONAME ; #<VT>#
	_ZTV15CLmkAOOperation @ 128 NONAME ; #<VT>#
	_ZTV17CLmkDbInitializer @ 129 NONAME ; #<VT>#
	_ZTV17CLmkDbSearchUtils @ 130 NONAME ; #<VT>#
	_ZTV17CLmkIconOperation @ 131 NONAME ; #<VT>#
	_ZTV18CLmkCategoryUiItem @ 132 NONAME ; #<VT>#
	_ZTV18CLmkLandmarkUiItem @ 133 NONAME ; #<VT>#
	_ZTV19CLmkDbEventListener @ 134 NONAME ; #<VT>#
	_ZTV19CLmkLocationService @ 135 NONAME ; #<VT>#
	_ZTV19CLmkParseAllWrapper @ 136 NONAME ; #<VT>#
	_ZTV20CLmkListProviderBase @ 137 NONAME ; #<VT>#
	_ZTV21CLmkAddToCatOperation @ 138 NONAME ; #<VT>#
	_ZTV22CLmkLmItemListProvider @ 139 NONAME ; #<VT>#
	_ZTV24CLmkCategoryListProvider @ 140 NONAME ; #<VT>#
	_ZTV24CLmkLandmarkListProvider @ 141 NONAME ; #<VT>#
	_ZTV24CLmkParsedLmListProvider @ 142 NONAME ; #<VT>#
	_ZTV26CLmkEventListenerSingleton @ 143 NONAME ; #<VT>#
	_ZTV26CLmkLandMarkCategoriesName @ 144 NONAME ; #<VT>#
	_ZTV26CLmkSearchedLmListProvider @ 145 NONAME ; #<VT>#
	_ZTV28CLmkEncodeUnsavedLandmarksOp @ 146 NONAME ; #<VT>#

