EXPORTS
	?ModifyEventL@CEvtMgmtUiEngine@@QAEXAAVCEvtEvent@@K@Z @ 1 NONAME ; void CEvtMgmtUiEngine::ModifyEventL(class CEvtEvent &, unsigned long)
	?EventId@CEvtBasicEventInfo@@QBEKXZ @ 2 NONAME ; unsigned long CEvtBasicEventInfo::EventId(void) const
	??1CEvtAction@@UAE@XZ @ 3 NONAME ; CEvtAction::~CEvtAction(void)
	?CancelRequest@CEvtMgmtUiEngine@@QAEXXZ @ 4 NONAME ; void CEvtMgmtUiEngine::CancelRequest(void)
	?Type@CEvtAction@@QBE?AW4TEvtActionType@@XZ @ 5 NONAME ; enum TEvtActionType CEvtAction::Type(void) const
	?RemoveEventsL@CEvtEventManager@@QAEXABV?$RArray@K@@@Z @ 6 NONAME ; void CEvtEventManager::RemoveEventsL(class RArray<unsigned long> const &)
	??1CEvtToneAction@@UAE@XZ @ 7 NONAME ; CEvtToneAction::~CEvtToneAction(void)
	?GetEventL@CEvtEventManager@@QAEPAVCEvtEvent@@K@Z @ 8 NONAME ; class CEvtEvent * CEvtEventManager::GetEventL(unsigned long)
	?Subject@CEvtEvent@@QBE?AVTPtrC16@@XZ @ 9 NONAME ; class TPtrC16 CEvtEvent::Subject(void) const
	?SetRepeat@CEvtEvent@@QAEXH@Z @ 10 NONAME ; void CEvtEvent::SetRepeat(int)
	?NewLC@CEvtEvent@@SAPAV1@XZ @ 11 NONAME ; class CEvtEvent * CEvtEvent::NewLC(void)
	??0CEvtAction@@AAE@XZ @ 12 NONAME ; CEvtAction::CEvtAction(void)
	?SetRadius@CEvtEvent@@QAEXN@Z @ 13 NONAME ; void CEvtEvent::SetRadius(double)
	?ConstructL@CEvtEvent@@AAEXXZ @ 14 NONAME ; void CEvtEvent::ConstructL(void)
	?Description@CEvtEvent@@QBE?AVTPtrC16@@XZ @ 15 NONAME ; class TPtrC16 CEvtEvent::Description(void) const
	?SetPlaceL@CEvtBasicEventInfo@@QAEXABVTDesC16@@@Z @ 16 NONAME ; void CEvtBasicEventInfo::SetPlaceL(class TDesC16 const &)
	?InternalizeL@CEvtToneAction@@QAEXAAVCEvtAction@@@Z @ 17 NONAME ; void CEvtToneAction::InternalizeL(class CEvtAction &)
	??1CEvtEventManager@@UAE@XZ @ 18 NONAME ; CEvtEventManager::~CEvtEventManager(void)
	?UpdateEventL@CEvtEventManager@@QAEXAAVCEvtEvent@@@Z @ 19 NONAME ; void CEvtEventManager::UpdateEventL(class CEvtEvent &)
	?DeleteEventL@CEvtMgmtUiEngine@@QAEXK@Z @ 20 NONAME ; void CEvtMgmtUiEngine::DeleteEventL(unsigned long)
	?EventL@CEvtMgmtUiEngine@@QAEPAVCEvtEvent@@K@Z @ 21 NONAME ; class CEvtEvent * CEvtMgmtUiEngine::EventL(unsigned long)
	?Place@CEvtBasicEventInfo@@QBE?AVTPtrC16@@XZ @ 22 NONAME ; class TPtrC16 CEvtBasicEventInfo::Place(void) const
	?SetObserver@CEvtMgmtUiEngine@@QAEXPAVMEvtMgmtUiEngineObserver@@@Z @ 23 NONAME ; void CEvtMgmtUiEngine::SetObserver(class MEvtMgmtUiEngineObserver *)
	?EventStatus@CEvtBasicEventInfo@@QBE?AW4TEvtEventStatus@@XZ @ 24 NONAME ; enum TEvtEventStatus CEvtBasicEventInfo::EventStatus(void) const
	?Radius@CEvtEvent@@QBENXZ @ 25 NONAME ; double CEvtEvent::Radius(void) const
	?UpdateEventsStatusL@CEvtEventManager@@QAEXABV?$RArray@K@@W4TEvtEventStatus@@@Z @ 26 NONAME ; void CEvtEventManager::UpdateEventsStatusL(class RArray<unsigned long> const &, enum TEvtEventStatus)
	?NewLC@CEvtAction@@SAPAV1@XZ @ 27 NONAME ; class CEvtAction * CEvtAction::NewLC(void)
	?NewL@CEvtToneAction@@SAPAV1@XZ @ 28 NONAME ; class CEvtToneAction * CEvtToneAction::NewL(void)
	?EventId@CEvtEvent@@QBEKXZ @ 29 NONAME ; unsigned long CEvtEvent::EventId(void) const
	?HandleFiredTriggerStateL@CEvtMgmtUiEngine@@QAEXK@Z @ 30 NONAME ; void CEvtMgmtUiEngine::HandleFiredTriggerStateL(unsigned long)
	?SyncDbsL@CEvtMgmtUiEngine@@QAEXXZ @ 31 NONAME ; void CEvtMgmtUiEngine::SyncDbsL(void)
	?Subject@CEvtBasicEventInfo@@QBE?AVTPtrC16@@XZ @ 32 NONAME ; class TPtrC16 CEvtBasicEventInfo::Subject(void) const
	?ConstructL@CEvtToneAction@@AAEXXZ @ 33 NONAME ; void CEvtToneAction::ConstructL(void)
	?ExternalizeL@CEvtToneAction@@QAEXAAVCEvtAction@@@Z @ 34 NONAME ; void CEvtToneAction::ExternalizeL(class CEvtAction &)
	?NewL@CEvtMgmtUiEngine@@SAPAV1@XZ @ 35 NONAME ; class CEvtMgmtUiEngine * CEvtMgmtUiEngine::NewL(void)
	?SetSubjectL@CEvtBasicEventInfo@@QAEXABVTDesC16@@@Z @ 36 NONAME ; void CEvtBasicEventInfo::SetSubjectL(class TDesC16 const &)
	?GetEventsL@CEvtEventManager@@QAEXAAV?$RPointerArray@VCEvtBasicEventInfo@@@@@Z @ 37 NONAME ; void CEvtEventManager::GetEventsL(class RPointerArray<class CEvtBasicEventInfo> &)
	?GetEventsL@CEvtEventManager@@QAEXW4TEvtEventStatus@@AAV?$RPointerArray@VCEvtBasicEventInfo@@@@@Z @ 38 NONAME ; void CEvtEventManager::GetEventsL(enum TEvtEventStatus, class RPointerArray<class CEvtBasicEventInfo> &)
	?AddEventL@CEvtEventManager@@QAEXAAVCEvtEvent@@@Z @ 39 NONAME ; void CEvtEventManager::AddEventL(class CEvtEvent &)
	?SetPlaceL@CEvtEvent@@QAEXABVTDesC16@@@Z @ 40 NONAME ; void CEvtEvent::SetPlaceL(class TDesC16 const &)
	?SetObserver@CEvtEventManager@@QAEXPAVMEvtStorageDbObserver@@@Z @ 41 NONAME ; void CEvtEventManager::SetObserver(class MEvtStorageDbObserver *)
	?SetSubjectL@CEvtEvent@@QAEXABVTDesC16@@@Z @ 42 NONAME ; void CEvtEvent::SetSubjectL(class TDesC16 const &)
	?NewLC@CEvtMgmtUiEngine@@SAPAV1@XZ @ 43 NONAME ; class CEvtMgmtUiEngine * CEvtMgmtUiEngine::NewLC(void)
	?Repeat@CEvtEvent@@QBEHXZ @ 44 NONAME ; int CEvtEvent::Repeat(void) const
	?SetActionL@CEvtEvent@@QAEXPAVCEvtAction@@@Z @ 45 NONAME ; void CEvtEvent::SetActionL(class CEvtAction *)
	?SetEventId@CEvtEvent@@QAEXK@Z @ 46 NONAME ; void CEvtEvent::SetEventId(unsigned long)
	?UpdateEventStatusL@CEvtEventManager@@QAEXKW4TEvtEventStatus@@@Z @ 47 NONAME ; void CEvtEventManager::UpdateEventStatusL(unsigned long, enum TEvtEventStatus)
	?ConstructL@CEvtBasicEventInfo@@AAEXXZ @ 48 NONAME ; void CEvtBasicEventInfo::ConstructL(void)
	??1CEvtBasicEventInfo@@UAE@XZ @ 49 NONAME ; CEvtBasicEventInfo::~CEvtBasicEventInfo(void)
	??0CEvtToneAction@@AAE@XZ @ 50 NONAME ; CEvtToneAction::CEvtToneAction(void)
	?EventStatus@CEvtEvent@@QBE?AW4TEvtEventStatus@@XZ @ 51 NONAME ; enum TEvtEventStatus CEvtEvent::EventStatus(void) const
	?NewL@CEvtAction@@SAPAV1@XZ @ 52 NONAME ; class CEvtAction * CEvtAction::NewL(void)
	?NewL@CEvtEventManager@@SAPAV1@XZ @ 53 NONAME ; class CEvtEventManager * CEvtEventManager::NewL(void)
	?SetRepeat@CEvtBasicEventInfo@@QAEXH@Z @ 54 NONAME ; void CEvtBasicEventInfo::SetRepeat(int)
	?RetrieveLocationL@CEvtMgmtUiEngine@@QAEXKAAVTCoordinate@@@Z @ 55 NONAME ; void CEvtMgmtUiEngine::RetrieveLocationL(unsigned long, class TCoordinate &)
	?SetEventStatus@CEvtBasicEventInfo@@QAEXW4TEvtEventStatus@@@Z @ 56 NONAME ; void CEvtBasicEventInfo::SetEventStatus(enum TEvtEventStatus)
	?AddEventL@CEvtMgmtUiEngine@@QAEXAAVCEvtEvent@@@Z @ 57 NONAME ; void CEvtMgmtUiEngine::AddEventL(class CEvtEvent &)
	?NewLC@CEvtToneAction@@SAPAV1@XZ @ 58 NONAME ; class CEvtToneAction * CEvtToneAction::NewLC(void)
	?Place@CEvtEvent@@QBE?AVTPtrC16@@XZ @ 59 NONAME ; class TPtrC16 CEvtEvent::Place(void) const
	?NewL@CEvtEvent@@SAPAV1@XZ @ 60 NONAME ; class CEvtEvent * CEvtEvent::NewL(void)
	?Location@CEvtEvent@@QBEAAVTPosition@@XZ @ 61 NONAME ; class TPosition & CEvtEvent::Location(void) const
	?SetFileNameL@CEvtToneAction@@QAEXABVTDesC16@@@Z @ 62 NONAME ; void CEvtToneAction::SetFileNameL(class TDesC16 const &)
	??0CEvtBasicEventInfo@@AAE@XZ @ 63 NONAME ; CEvtBasicEventInfo::CEvtBasicEventInfo(void)
	?SetEventStateL@CEvtMgmtUiEngine@@QAEXW4TEvtEventStatus@@K@Z @ 64 NONAME ; void CEvtMgmtUiEngine::SetEventStateL(enum TEvtEventStatus, unsigned long)
	?CalculateFiredAccuracyL@CEvtMgmtUiEngine@@QAE?AW4TEvtFireAccuracy@@K@Z @ 65 NONAME ; enum TEvtFireAccuracy CEvtMgmtUiEngine::CalculateFiredAccuracyL(unsigned long)
	?NewLC@CEvtBasicEventInfo@@SAPAV1@XZ @ 66 NONAME ; class CEvtBasicEventInfo * CEvtBasicEventInfo::NewLC(void)
	?NewLC@CEvtEventManager@@SAPAV1@XZ @ 67 NONAME ; class CEvtEventManager * CEvtEventManager::NewLC(void)
	?FileName@CEvtToneAction@@QBE?AVTPtrC16@@XZ @ 68 NONAME ; class TPtrC16 CEvtToneAction::FileName(void) const
	?Action@CEvtEvent@@QBEAAVCEvtAction@@XZ @ 69 NONAME ; class CEvtAction & CEvtEvent::Action(void) const
	?HasAction@CEvtEvent@@QAEHXZ @ 70 NONAME ; int CEvtEvent::HasAction(void)
	?RemoveObserver@CEvtMgmtUiEngine@@QAEXPAVMEvtMgmtUiEngineObserver@@@Z @ 71 NONAME ; void CEvtMgmtUiEngine::RemoveObserver(class MEvtMgmtUiEngineObserver *)
	?SetEventStatus@CEvtEvent@@QAEXW4TEvtEventStatus@@@Z @ 72 NONAME ; void CEvtEvent::SetEventStatus(enum TEvtEventStatus)
	?RemoveEventL@CEvtEventManager@@QAEXK@Z @ 73 NONAME ; void CEvtEventManager::RemoveEventL(unsigned long)
	?UpdateModelL@CEvtMgmtUiEngine@@QAEXAAV?$RPointerArray@VCEvtBasicEventInfo@@@@W4TEvtEventStatusFilter@1@@Z @ 74 NONAME ; void CEvtMgmtUiEngine::UpdateModelL(class RPointerArray<class CEvtBasicEventInfo> &, enum CEvtMgmtUiEngine::TEvtEventStatusFilter)
	?DeleteEventsL@CEvtMgmtUiEngine@@QAEXPBV?$RArray@K@@@Z @ 75 NONAME ; void CEvtMgmtUiEngine::DeleteEventsL(class RArray<unsigned long> const *)
	?NewL@CEvtBasicEventInfo@@SAPAV1@XZ @ 76 NONAME ; class CEvtBasicEventInfo * CEvtBasicEventInfo::NewL(void)
	?SetEventsStateL@CEvtMgmtUiEngine@@QAEXW4TEvtEventStatus@@PBV?$RArray@K@@@Z @ 77 NONAME ; void CEvtMgmtUiEngine::SetEventsStateL(enum TEvtEventStatus, class RArray<unsigned long> const *)
	?SetToneLoop@CEvtToneAction@@QAEXH@Z @ 78 NONAME ; void CEvtToneAction::SetToneLoop(int)
	?SetDescriptionL@CEvtEvent@@QAEXABVTDesC16@@@Z @ 79 NONAME ; void CEvtEvent::SetDescriptionL(class TDesC16 const &)
	?SetEventId@CEvtBasicEventInfo@@QAEXK@Z @ 80 NONAME ; void CEvtBasicEventInfo::SetEventId(unsigned long)
	?ConstructL@CEvtAction@@AAEXXZ @ 81 NONAME ; void CEvtAction::ConstructL(void)
	?ToneLoop@CEvtToneAction@@QBEHXZ @ 82 NONAME ; int CEvtToneAction::ToneLoop(void) const
	?Repeat@CEvtBasicEventInfo@@QBEHXZ @ 83 NONAME ; int CEvtBasicEventInfo::Repeat(void) const

