EXPORTS
	_ZN10CLcService12SetObserverLER15MLcNotification @ 1 NONAME
	_ZN10CLcService14CLcLaunchParam4NewLERK7TDesC16N18CLcLocationAppInfo13TLcLaunchModeE @ 2 NONAME
	_ZN10CLcService14CLcLaunchParam5NewLCERK7TDesC16N18CLcLocationAppInfo13TLcLaunchModeE @ 3 NONAME
	_ZN10CLcService14RemoveObserverEv @ 4 NONAME
	_ZN10CLcService21LaunchLocationCentreLEN18CLcLocationAppInfo13TLcLaunchModeEP18MLcAppExitObserver @ 5 NONAME
	_ZN10CLcService21LaunchLocationCentreLERK13RPointerArrayINS_14CLcLaunchParamEEP18MLcAppExitObserver @ 6 NONAME
	_ZN10CLcService21LaunchLocationCentreLERK20TLcLocationAppFilterN18CLcLocationAppInfo13TLcLaunchModeEP18MLcAppExitObserver @ 7 NONAME
	_ZN10CLcService21LaunchLocationCentreLERK6RArrayI7TPtrC16EN18CLcLocationAppInfo13TLcLaunchModeEP18MLcAppExitObserver @ 8 NONAME
	_ZN10CLcService23GetLocationApplicationsER14TRequestStatusRK20TLcLocationAppFilterRP23CLcLocationAppInfoArray @ 9 NONAME
	_ZN10CLcService23GetLocationApplicationsER14TRequestStatusRP23CLcLocationAppInfoArray @ 10 NONAME
	_ZN10CLcService24GetLocationApplicationsLERK20TLcLocationAppFilter @ 11 NONAME
	_ZN10CLcService24GetLocationApplicationsLEv @ 12 NONAME
	_ZN10CLcService26LaunchLocationApplicationLERK7TDesC16N18CLcLocationAppInfo13TLcLaunchModeEP18MLcAppExitObserver @ 13 NONAME
	_ZN10CLcService26SelectLocationApplicationLERK20TLcLocationAppFilter @ 14 NONAME
	_ZN10CLcService26SelectLocationApplicationLERK6RArrayI7TPtrC16Ei @ 15 NONAME
	_ZN10CLcService26SelectLocationApplicationLEv @ 16 NONAME
	_ZN10CLcService29CancelGetLocationApplicationsEv @ 17 NONAME
	_ZN10CLcService4NewLEv @ 18 NONAME
	_ZN10CLcService5NewLCEv @ 19 NONAME
	_ZN18CLcLocationAppInfo4NewLERKS_ @ 20 NONAME
	_ZN18CLcLocationAppInfo4NewLEv @ 21 NONAME
	_ZN18CLcLocationAppInfo5NewLCERKS_ @ 22 NONAME
	_ZN18CLcLocationAppInfo5NewLCEv @ 23 NONAME
	_ZN18CLcLocationAppInfoD0Ev @ 24 NONAME
	_ZN18CLcLocationAppInfoD1Ev @ 25 NONAME
	_ZN18CLcLocationAppInfoD2Ev @ 26 NONAME
	_ZN20TLcLocationAppFilter23SetSystemCharacteristicEm @ 27 NONAME
	_ZN20TLcLocationAppFilter29SetAppCharFilterConfigurationENS_15TLcFilterConfigE @ 28 NONAME
	_ZN20TLcLocationAppFilter29SetApplicationCharacteristicsEm @ 29 NONAME
	_ZN20TLcLocationAppFilter29SetSysCharFilterConfigurationENS_15TLcFilterConfigE @ 30 NONAME
	_ZN20TLcLocationAppFilterC1Ev @ 31 NONAME
	_ZN20TLcLocationAppFilterC2Ev @ 32 NONAME
	_ZN23CLcLocationAppInfoArray4NewLEv @ 33 NONAME
	_ZN23CLcLocationAppInfoArray5NewLCEv @ 34 NONAME
	_ZN23CLcLocationAppInfoArray6RemoveEi @ 35 NONAME
	_ZN23CLcLocationAppInfoArray7AppendLEP18CLcLocationAppInfo @ 36 NONAME
	_ZN23CLcLocationAppInfoArrayD0Ev @ 37 NONAME
	_ZN23CLcLocationAppInfoArrayD1Ev @ 38 NONAME
	_ZN23CLcLocationAppInfoArrayD2Ev @ 39 NONAME
	_ZNK18CLcLocationAppInfo10LaunchModeEv @ 40 NONAME
	_ZNK18CLcLocationAppInfo21SystemCharacteristicsEv @ 41 NONAME
	_ZNK18CLcLocationAppInfo26ApplicationCharacteristicsEv @ 42 NONAME
	_ZNK18CLcLocationAppInfo2IdEv @ 43 NONAME
	_ZNK18CLcLocationAppInfo4NameEv @ 44 NONAME
	_ZNK18CLcLocationAppInfo5IconLEv @ 45 NONAME
	_ZNK20TLcLocationAppFilter21SystemCharacteristicsEv @ 46 NONAME
	_ZNK20TLcLocationAppFilter26AppCharFilterConfigurationEv @ 47 NONAME
	_ZNK20TLcLocationAppFilter26ApplicationCharacteristicsEv @ 48 NONAME
	_ZNK20TLcLocationAppFilter26SysCharFilterConfigurationEv @ 49 NONAME
	_ZNK23CLcLocationAppInfoArray5CountEv @ 50 NONAME
	_ZNK23CLcLocationAppInfoArrayixEi @ 51 NONAME
	_ZTI10CLcService @ 52 NONAME ; #<TI>#
	_ZTI18CLcLocationAppInfo @ 53 NONAME ; #<TI>#
	_ZTI23CLcLocationAppInfoArray @ 54 NONAME ; #<TI>#
	_ZTIN10CLcService14CLcLaunchParamE @ 55 NONAME ; #<TI>#
	_ZTV10CLcService @ 56 NONAME ; #<VT>#
	_ZTV18CLcLocationAppInfo @ 57 NONAME ; #<VT>#
	_ZTV23CLcLocationAppInfoArray @ 58 NONAME ; #<VT>#
	_ZTVN10CLcService14CLcLaunchParamE @ 59 NONAME ; #<VT>#
	_ZN23CLcLocationAppInfoArray5ResetEv @ 60 NONAME

