EXPORTS
	_ZN10CLmkSender4NewLER20CPosLandmarkDatabase @ 1 NONAME
	_ZN11CLmkCallCmd4NewLEv @ 2 NONAME
	_ZN11CLmkUiUtils16ChangeTitlePaneLEP7HBufC16 @ 3 NONAME
	_ZN11CLmkUiUtils16ChangeTitlePaneLEi @ 4 NONAME
	_ZN11CLmkUiUtils22ChangeLmNameLabelIconLER19MLmkEditorUiBuilderR13MLmkFieldData @ 5 NONAME
	_ZN11CLmkUiUtils24GetFileWithCorrectDriveLER4TBufILi256EE @ 6 NONAME
	_ZN14CLmkEditorImpl12SetMopParentEP15MObjectProvider @ 7 NONAME
	_ZN14CLmkEditorImpl14SetHelpContextE15TCoeHelpContext @ 8 NONAME
	_ZN14CLmkEditorImpl34DisableMapAndNavigationMenuOptionsEv @ 9 NONAME
	_ZN14CLmkEditorImpl4NewLER20CPosLandmarkDatabaseR10CLmkSendermiP12CPosLandmark @ 10 NONAME
	_ZN14CLmkEditorImpl4NewLER20CPosLandmarkDatabaseR10CLmkSendermiPmP12CPosLandmark @ 11 NONAME
	_ZN14CLmkEditorImpl4NewLER20CPosLandmarkDatabaseR10CLmkSendermim @ 12 NONAME
	_ZN14CLmkEditorImpl9ExecuteLDEv @ 13 NONAME
	_ZN14CLmkGoToURLCmd4NewLEv @ 14 NONAME
	_ZN20CLmkSelectorImplBase10SetMementoER15MLmkListMemento @ 15 NONAME
	_ZN21CLmkAppLmSelectorImpl13CategoryNameLEv @ 16 NONAME
	_ZN21CLmkAppLmSelectorImpl26IsCriteriaUnCategorizedCatEv @ 17 NONAME
	_ZN21CLmkAppLmSelectorImpl28RemoveLandmarksFromCategoryLEv @ 18 NONAME
	_ZN21CLmkAppLmSelectorImpl4NewLER20CPosLandmarkDatabaseR10CLmkSenderi @ 19 NONAME
	_ZN21CLmkAppLmSelectorImpl4NewLER20CPosLandmarkDatabaseRK15MLmkListMementoR10CLmkSenderi @ 20 NONAME
	_ZN21CLmkDlgLmSelectorImpl4NewLER20CPosLandmarkDatabase @ 21 NONAME
	_ZN21CLmkDlgLmSelectorImpl4NewLER20CPosLandmarkDatabaseP20CPosLmSearchCriteria @ 22 NONAME
	_ZN21CLmkPackageEditorImpl4NewLER20CPosLandmarkDatabaseR10CLmkParserR10CLmkSenderi @ 23 NONAME
	_ZN21CLmkSaveLandmarkUtils4NewLER20CPosLandmarkDatabaseR10CLmkParser @ 24 NONAME
	_ZN23CLmkAppSelectorImplBase12StoreMementoEv @ 25 NONAME
	_ZN23CLmkAppSelectorImplBase13MarkedIndexesEv @ 26 NONAME
	_ZN23CLmkAppSelectorImplBase14CreateFindBoxLERK11CCoeControl @ 27 NONAME
	_ZN23CLmkAppSelectorImplBase14RestoreMementoEv @ 28 NONAME
	_ZN23CLmkAppSelectorImplBase14SetMskObserverEP15MLmkMskObserver @ 29 NONAME
	_ZN23CLmkAppSelectorImplBase16CurrentItemIndexEv @ 30 NONAME
	_ZN23CLmkDlgSelectorImplBase12SetMopParentEP15MObjectProvider @ 31 NONAME
	_ZN24CLmkDlgCombiSelectorImpl4NewLER20CPosLandmarkDatabase @ 32 NONAME
	_ZN25CLmkAppLmItemSelectorImpl18LaunchPosSettingsLEv @ 33 NONAME
	_ZN26CLmkDlgPackageSelectorImpl4NewLER20CPosLandmarkDatabaseR10CLmkParserR10CLmkSender @ 34 NONAME
	_ZN26CLmkMapNavigationInterface11SetObserverEP28MLmkMapAndNavigationObserver @ 35 NONAME
	_ZN26CLmkMapNavigationInterface13HandleNotifyLEiiR20CAiwGenericParamListRKS0_ @ 36 NONAME
	_ZN26CLmkMapNavigationInterface15AttachMenuPaneLEP12CEikMenuPaneii @ 37 NONAME
	_ZN26CLmkMapNavigationInterface15DetachInterestLEii @ 38 NONAME
	_ZN26CLmkMapNavigationInterface18AttachAIWInterestLEii @ 39 NONAME
	_ZN26CLmkMapNavigationInterface18ShowCategoryOnMapLEmiNS_9EViewTypeE @ 40 NONAME
	_ZN26CLmkMapNavigationInterface19GetLandmarkFromMapLEi @ 41 NONAME
	_ZN26CLmkMapNavigationInterface19NavigateToLandmarkLEP12CPosLandmarki @ 42 NONAME
	_ZN26CLmkMapNavigationInterface19ShowLandmarksOnMapLER13RPointerArrayI12CPosLandmarkEiNS_9EViewTypeE @ 43 NONAME
	_ZN26CLmkMapNavigationInterface20HandleMenuOperationLEiP12CEikMenuPanei @ 44 NONAME
	_ZN26CLmkMapNavigationInterface22GetServiceCmdByMenuCmdEi @ 45 NONAME
	_ZN26CLmkMapNavigationInterface30GetLandmarkFromMapForCategoryLEim @ 46 NONAME
	_ZN26CLmkMapNavigationInterface4NewLER20CPosLandmarkDatabase @ 47 NONAME
	_ZN26CLmkMapNavigationInterface7ReleaseEv @ 48 NONAME
	_ZN26CLmkMapNavigationInterfaceD0Ev @ 49 NONAME
	_ZN26CLmkMapNavigationInterfaceD1Ev @ 50 NONAME
	_ZN26CLmkMapNavigationInterfaceD2Ev @ 51 NONAME
	_ZN27CLmkAppCategorySelectorImpl17CurrentCategoryIdEv @ 52 NONAME
	_ZN27CLmkAppCategorySelectorImpl4NewLER20CPosLandmarkDatabaseR10CLmkSenderi @ 53 NONAME
	_ZN27CLmkAppCategorySettingsImpl21IsPredefinedCategoryLEv @ 54 NONAME
	_ZN27CLmkAppCategorySettingsImpl4NewLER20CPosLandmarkDatabaseR10CLmkSenderi @ 55 NONAME
	_ZN27CLmkDlgCategorySelectorImpl4NewLER20CPosLandmarkDatabaseii @ 56 NONAME
	_ZN8LmkNotes13MessageQueryLEP9CEikonEnvR6TDes16i @ 57 NONAME
	_ZN8LmkNotes16InformationNoteLEP9CEikonEnvi @ 58 NONAME
	_ZN8LmkNotes16OutOfMemoryNoteLEP9CEikonEnv @ 59 NONAME
	_ZN8LmkNotes18CategoryEmptyNoteLEP9CEikonEnv7TPtrC16 @ 60 NONAME
	_ZN8LmkNotes18CategoryNameQueryLER6TDes16i @ 61 NONAME
	_ZN8LmkNotes19LandmarksEmptyNoteLEP9CEikonEnv7TPtrC16 @ 62 NONAME
	_ZN8LmkNotes20GenericMessageQueryLEP9CEikonEnvii @ 63 NONAME
	_ZN8LmkNotes21MessageQueryWithLinkLEP9CEikonEnviii9TCallBack @ 64 NONAME
	_ZN8LmkNotes21ShowDelayedInfoPopupLER7TDesC16R6TPoint @ 65 NONAME
	_ZN8LmkNotes22AllLandmarksEmptyNoteLEP9CEikonEnv @ 66 NONAME
	_ZN8LmkNotes24InformationNotewithTextLEP9CEikonEnvi7TPtrC16 @ 67 NONAME
	_ZN8LmkNotes26CategoryConfirmationQueryLEP9CEikonEnvi @ 68 NONAME
	_ZN8LmkNotes26LandmarkConfirmationQueryLEP9CEikonEnvi @ 69 NONAME
	_ZN8LmkNotes26ShowOwerriteLocationQueryLEP9CEikonEnv @ 70 NONAME
	_ZN8LmkNotes28LandmarkInCategoryEmptyNoteLEP9CEikonEnv7TPtrC16S2_ @ 71 NONAME
	_ZNK10CLmkSender16DisplaySendMenuLER12CEikMenuPaneii @ 72 NONAME
	_ZNK10CLmkSender23DisplaySendCascadeMenuLER12CEikMenuPane @ 73 NONAME
	_ZNK21CLmkLmItemListMemento15MemorizedItemIdEv @ 74 NONAME
	_ZTI10CLmkSender @ 75 NONAME ; #<TI>#
	_ZTI11CLmkCallCmd @ 76 NONAME ; #<TI>#
	_ZTI11CLmkUiUtils @ 77 NONAME ; #<TI>#
	_ZTI14CLmkEditorImpl @ 78 NONAME ; #<TI>#
	_ZTI14CLmkGoToURLCmd @ 79 NONAME ; #<TI>#
	_ZTI17CLmkSelectorCache @ 80 NONAME ; #<TI>#
	_ZTI18CLmkSelectorDialog @ 81 NONAME ; #<TI>#
	_ZTI18TLmkDeletionHelper @ 82 NONAME ; #<TI>#
	_ZTI19CLmkEditorFieldBase @ 83 NONAME ; #<TI>#
	_ZTI19CLmkEditorListField @ 84 NONAME ; #<TI>#
	_ZTI19CLmkEditorTextField @ 85 NONAME ; #<TI>#
	_ZTI19CLmkPkgFindNewCatOp @ 86 NONAME ; #<TI>#
	_ZTI19CLmkSelectorIconMgr @ 87 NONAME ; #<TI>#
	_ZTI20CLmkEditorFieldArray @ 88 NONAME ; #<TI>#
	_ZTI20CLmkSelectorImplBase @ 89 NONAME ; #<TI>#
	_ZTI21CLmkAppLmSelectorImpl @ 90 NONAME ; #<TI>#
	_ZTI21CLmkDlgLmSelectorImpl @ 91 NONAME ; #<TI>#
	_ZTI21CLmkEditorNumberField @ 92 NONAME ; #<TI>#
	_ZTI21CLmkLmItemListMemento @ 93 NONAME ; #<TI>#
	_ZTI21CLmkPackageEditorImpl @ 94 NONAME ; #<TI>#
	_ZTI21CLmkSaveLandmarkUtils @ 95 NONAME ; #<TI>#
	_ZTI23CLmkAppSelectorImplBase @ 96 NONAME ; #<TI>#
	_ZTI23CLmkDlgSelectorImplBase @ 97 NONAME ; #<TI>#
	_ZTI23CLmkLocSettingsLauncher @ 98 NONAME ; #<TI>#
	_ZTI23CLmkMultiSelectorDialog @ 99 NONAME ; #<TI>#
	_ZTI23CLmkSelectorLBModelBase @ 100 NONAME ; #<TI>#
	_ZTI24CLmkDlgCombiSelectorImpl @ 101 NONAME ; #<TI>#
	_ZTI24CLmkDoubleGraphicLBModel @ 102 NONAME ; #<TI>#
	_ZTI24CLmkSingleGraphicLBModel @ 103 NONAME ; #<TI>#
	_ZTI25CLmkAppLmItemSelectorImpl @ 104 NONAME ; #<TI>#
	_ZTI25CLmkEditorCoordinateField @ 105 NONAME ; #<TI>#
	_ZTI25CLmkMultiSelectionLBModel @ 106 NONAME ; #<TI>#
	_ZTI26CLmkDlgPackageSelectorImpl @ 107 NONAME ; #<TI>#
	_ZTI26CLmkMapNavigationInterface @ 108 NONAME ; #<TI>#
	_ZTI26TLmkLauncherContentHandler @ 109 NONAME ; #<TI>#
	_ZTI27CLmkAppCategorySelectorImpl @ 110 NONAME ; #<TI>#
	_ZTI27CLmkAppCategorySettingsImpl @ 111 NONAME ; #<TI>#
	_ZTI27CLmkDlgCategorySelectorImpl @ 112 NONAME ; #<TI>#
	_ZTIN17CLmkSelectorCache11CLinkedItemE @ 113 NONAME ; #<TI>#
	_ZTV10CLmkSender @ 114 NONAME ; #<VT>#
	_ZTV11CLmkCallCmd @ 115 NONAME ; #<VT>#
	_ZTV11CLmkUiUtils @ 116 NONAME ; #<VT>#
	_ZTV14CLmkEditorImpl @ 117 NONAME ; #<VT>#
	_ZTV14CLmkGoToURLCmd @ 118 NONAME ; #<VT>#
	_ZTV17CLmkSelectorCache @ 119 NONAME ; #<VT>#
	_ZTV18CLmkSelectorDialog @ 120 NONAME ; #<VT>#
	_ZTV18TLmkDeletionHelper @ 121 NONAME ; #<VT>#
	_ZTV19CLmkEditorFieldBase @ 122 NONAME ; #<VT>#
	_ZTV19CLmkEditorListField @ 123 NONAME ; #<VT>#
	_ZTV19CLmkEditorTextField @ 124 NONAME ; #<VT>#
	_ZTV19CLmkPkgFindNewCatOp @ 125 NONAME ; #<VT>#
	_ZTV19CLmkSelectorIconMgr @ 126 NONAME ; #<VT>#
	_ZTV20CLmkEditorFieldArray @ 127 NONAME ; #<VT>#
	_ZTV20CLmkSelectorImplBase @ 128 NONAME ; #<VT>#
	_ZTV21CLmkAppLmSelectorImpl @ 129 NONAME ; #<VT>#
	_ZTV21CLmkDlgLmSelectorImpl @ 130 NONAME ; #<VT>#
	_ZTV21CLmkEditorNumberField @ 131 NONAME ; #<VT>#
	_ZTV21CLmkLmItemListMemento @ 132 NONAME ; #<VT>#
	_ZTV21CLmkPackageEditorImpl @ 133 NONAME ; #<VT>#
	_ZTV21CLmkSaveLandmarkUtils @ 134 NONAME ; #<VT>#
	_ZTV23CLmkAppSelectorImplBase @ 135 NONAME ; #<VT>#
	_ZTV23CLmkDlgSelectorImplBase @ 136 NONAME ; #<VT>#
	_ZTV23CLmkLocSettingsLauncher @ 137 NONAME ; #<VT>#
	_ZTV23CLmkMultiSelectorDialog @ 138 NONAME ; #<VT>#
	_ZTV23CLmkSelectorLBModelBase @ 139 NONAME ; #<VT>#
	_ZTV24CLmkDlgCombiSelectorImpl @ 140 NONAME ; #<VT>#
	_ZTV24CLmkDoubleGraphicLBModel @ 141 NONAME ; #<VT>#
	_ZTV24CLmkSingleGraphicLBModel @ 142 NONAME ; #<VT>#
	_ZTV25CLmkAppLmItemSelectorImpl @ 143 NONAME ; #<VT>#
	_ZTV25CLmkEditorCoordinateField @ 144 NONAME ; #<VT>#
	_ZTV25CLmkMultiSelectionLBModel @ 145 NONAME ; #<VT>#
	_ZTV26CLmkDlgPackageSelectorImpl @ 146 NONAME ; #<VT>#
	_ZTV26CLmkMapNavigationInterface @ 147 NONAME ; #<VT>#
	_ZTV26TLmkLauncherContentHandler @ 148 NONAME ; #<VT>#
	_ZTV27CLmkAppCategorySelectorImpl @ 149 NONAME ; #<VT>#
	_ZTV27CLmkAppCategorySettingsImpl @ 150 NONAME ; #<VT>#
	_ZTV27CLmkDlgCategorySelectorImpl @ 151 NONAME ; #<VT>#
	_ZTVN17CLmkSelectorCache11CLinkedItemE @ 152 NONAME ; #<VT>#
	_ZThn4_N26CLmkMapNavigationInterface13HandleNotifyLEiiR20CAiwGenericParamListRKS0_ @ 153 NONAME ; #<thunk>#
	_ZN21CLmkAppLmSelectorImpl24StartSearchingLandmarksLERK7TDesC16i @ 154 NONAME

